(dp0
V\u6000
p1
I1126
sV\u6302
p2
I1337
sV\u8000
p3
I2669
sV\u6d89
p4
I1906
sV\u8c08
p5
I3124
sV\u4f0a
p6
I121
sV\u568f
p7
I637
sV\u8302
p8
I2844
sV\u6297
p9
I1280
sV\u8116
p10
I2746
sV\u6599
p11
I1496
sV\u6d1e
p12
I1876
sV\u9020
p13
I3338
sV\u77a5
p14
I2328
sV\u7624
p15
I2257
sV\u822c
p16
I2798
sV\u6f5c
p17
I2004
sV\u6cb3
p18
I1843
sV\u6b32
p19
I1748
sV\u4fb5
p20
I180
sV\u4e34
p21
I29
sV\u7136
p22
I2071
sV\u75b9
p23
I2235
sV\u5438
p24
I517
sV\u573a
p25
I663
sV\u5bbd
p26
I886
sV\u7a3c
p27
I2446
sV\u7ebf
p28
I2579
sV\u6342
p29
I1359
sV\u53cd
p30
I458
sV\u724c
p31
I2102
sV\u76cf
p32
I2286
sV\u820c
p33
I2790
sV\u59d1
p34
I799
sV\u7b52
p35
I2497
sV\u968f
p36
I3557
sV\u82d7
p37
I2833
sV\u7eb8
p38
I2575
sV\u6458
p39
I1436
sV\u723d
p40
I2099
sV\u8bdd
p41
I3098
sV\u4edf
p42
I107
sV\u8364
p43
I2865
sV\u51e1
p44
I302
sV\u74e3
p45
I2185
sV\u5362
p46
I421
sV\u77e5
p47
I2339
sV\u9664
p48
I3547
sV\u916c
p49
I3397
sV\u5de9
p50
I986
sV\u60eb
p51
I1188
sV\u5f6a
p52
I1086
sV\u63ed
p53
I1412
sV\u626c
p54
I1260
sV\u8870
p55
I3011
sV\u6cf3
p56
I1866
sV\u5176
p57
I261
sV\u75f9
p58
I2254
sV\u5478
p59
I535
sV\u9a7c
p60
I3683
sV\u7eff
p61
I2617
sV\u6e14
p62
I1947
sV\u6101
p63
I1197
sV\u6382
p64
I1380
sV\u6986
p65
I1722
sV\u96c5
p66
I3569
sV\u6c88
p67
I1829
sV\u8f8a
p68
I3274
sV\u6e43
p69
I1960
sV\u9890
p70
I3635
sV\u89c2
p71
I3045
sV\u5f15
p72
I1065
sV\u5e94
p73
I1037
sV\u679a
p74
I1625
sV\u5121
p75
I235
sV\u53a2
p76
I445
sV\u9047
p77
I3347
sV\u5d29
p78
I974
sV\u5faa
p79
I1106
sV\u62ac
p80
I1291
sV\u662f
p81
I1540
sV\u68b0
p82
I1693
sV\u8bb2
p83
I3073
sV\u5237
p84
I337
sV\u51b6
p85
I288
sV\u9539
p86
I3485
sV\u54b8
p87
I555
sV\u8d1e
p88
I3158
sV\u9e3f
p89
I3727
sV\u80c0
p90
I2720
sV\u7409
p91
I2169
sV\u6a47
p92
I1736
sV\u89c6
p93
I3048
sV\u4fca
p94
I184
sV\u5951
p95
I768
sV\u78d0
p96
I2390
sV\u5bd2
p97
I896
sV\u5f55
p98
I1080
sV\u9ed4
p99
I3742
sV\u9178
p100
I3403
sV\u6559
p101
I1479
sV\u4e5f
p102
I54
sV\u56e4
p103
I647
sV\u79e6
p104
I2429
sV\u5ce8
p105
I965
sV\u606b
p106
I1153
sV\u62ec
p107
I1325
sV\u666f
p108
I1554
sV\u8bf2
p109
I3111
sV\u6ef4
p110
I1991
sV\u51f6
p111
I308
sV\u94f8
p112
I3460
sV\u987b
p113
I3623
sV\u57fa
p114
I705
sV\u5b7d
p115
I854
sV\u5e7f
p116
I1029
sV\u5dfe
p117
I994
sV\u6c89
p118
I1830
sV\u918b
p119
I3407
sV\u4e0a
p120
I6
sV\u540e
p121
I493
sV\u7891
p122
I2376
sV\u9910
p123
I3650
sV\u8682
p124
I2959
sV\u5e95
p125
I1038
sV\u7f14
p126
I2625
sV\u6016
p127
I1133
sV\u8499
p128
I2908
sV\u6518
p129
I1465
sV\u952e
p130
I3482
sV\u8f9f
p131
I3285
sV\u7384
p132
I2149
sV\u998f
p133
I3668
sV\u7830
p134
I2357
sV\u5ca9
p135
I957
sV\u82ad
p136
I2822
sV\u7cb3
p137
I2539
sV\u67af
p138
I1632
sV\u80dc
p139
I2728
sV\u88b1
p140
I3022
sV\u6930
p141
I1713
sV\u8db3
p142
I3220
sV\u4f34
p143
I139
sV\u9988
p144
I3666
sV\u7538
p145
I2207
sV\u59bb
p146
I795
sV\u7b3c
p147
I2491
sV\u5c3e
p148
I930
sV\u80c1
p149
I2721
sV\u6846
p150
I1671
sV\u6cc9
p151
I1853
sV\u51cb
p152
I295
sV\u7ed5
p153
I2593
sV\u69db
p154
I1729
sV\u665a
p155
I1549
sV\u8fdf
p156
I3311
sV\u6c5e
p157
I1815
sV\u90e1
p158
I3376
sV\u55e3
p159
I619
sV\u7262
p160
I2107
sV\u5764
p161
I681
sV\u9897
p162
I3639
sV\u62ed
p163
I1326
sV\u8df3
p164
I3232
sV\u67ef
p165
I1647
sV\u68f1
p166
I1705
sV\u6df3
p167
I1939
sV\u8f74
p168
I3265
sV\u53f7
p169
I481
sV\u5076
p170
I216
sV\u5578
p171
I600
sV\u59fb
p172
I807
sV\u8d3e
p173
I3184
sV\u5fff
p174
I1125
sV\u6001
p175
I1127
sV\u8180
p176
I2767
sV\u8282
p177
I2813
sV\u6784
p178
I1620
sV\u6886
p179
I1685
sV\u6d88
p180
I1905
sV\u538c
p181
I440
sV\u548e
p182
I543
sV\u5811
p183
I708
sV\u5a92
p184
I828
sV\u5e15
p185
I1003
sV\u7f94
p186
I2651
sV\u8096
p187
I2702
sV\u4f1f
p188
I132
sV\u5021
p189
I205
sV\u51a0
p190
I280
sV\u9523
p191
I3476
sV\u6e1d
p192
I1949
sV\u7eaa
p193
I2565
sV\u672f
p194
I1592
sV\u64ae
p195
I1452
sV\u5439
p196
I518
sV\u7a3d
p197
I2447
sV\u7cbe
p198
I2541
sV\u7fc5
p199
I2659
sV\u81c0
p200
I2776
sV\u62c2
p201
I1298
sV\u67c4
p202
I1635
sV\u6b47
p203
I1751
sV\u6c49
p204
I1809
sV\u73cd
p205
I2162
sV\u514b
p206
I244
sV\u4eca
p207
I95
sV\u524d
p208
I347
sV\u53cc
p209
I457
sV\u574f
p210
I670
sV\u54ce
p211
I565
sV\u5851
p212
I716
sV\u59d0
p213
I798
sV\u5e55
p214
I1019
sV\u7fd4
p215
I2661
sV\u80d6
p216
I2726
sV\u6cde
p217
I1858
sV\u51e0
p218
I301
sV\u9563
p219
I3495
sV\u5de8
p220
I985
sV\u7eea
p221
I2607
sV\u626d
p222
I1261
sV\u676f
p223
I1615
sV\u5377
p224
I431
sV\u95f8
p225
I3509
sV\u56fa
p226
I652
sV\u5bfc
p227
I908
sV\u8c89
p228
I3155
sV\u8200
p229
I2787
sV\u8102
p230
I2738
sV\u8404
p231
I2888
sV\u8f89
p232
I3273
sV\u4e08
p233
I4
sV\u518d
p234
I273
sV\u548f
p235
I544
sV\u5e93
p236
I1036
sV\u7802
p237
I2349
sV\u5c14
p238
I917
sV\u6316
p239
I1342
sV\u851a
p240
I2922
sV\u6c9f
p241
I1834
sV\u4f1e
p242
I131
sV\u5220
p243
I329
sV\u56a3
p244
I638
sV\u75a5
p245
I2229
sV\u78a7
p246
I2380
sV\u7b26
p247
I2487
sV\u62ab
p248
I1290
sV\u7206
p249
I2090
sV\u8eb2
p250
I3255
sV\u6db5
p251
I1923
sV\u6c34
p252
I1803
sV\u7638
p253
I2263
sV\u8d5e
p254
I3201
sV\u79bd
p255
I2415
sV\u8bef
p256
I3109
sV\u5cbf
p257
I961
sV\u6240
p258
I1243
sV\u65c5
p259
I1510
sV\u6444
p260
I1430
sV\u4e48
p261
I38
sV\u52cb
p262
I378
sV\u6d4a
p263
I1889
sV\u91cd
p264
I3415
sV\u704c
p265
I2018
sV\u574e
p266
I669
sV\u5ed3
p267
I1053
sV\u90ae
p268
I3365
sV\u8c28
p269
I3138
sV\u6f5e
p270
I2005
sV\u5162
p271
I250
sV\u5b66
p272
I848
sV\u9e3d
p273
I3726
sV\u82eb
p274
I2839
sV\u81ed
p275
I2782
sV\u606c
p276
I1154
sV\u8bf1
p277
I3110
sV\u9012
p278
I3330
sV\u8df5
p279
I3233
sV\u70f7
p280
I2061
sV\u57f9
p281
I704
sV\u7678
p282
I2266
sV\u79fd
p283
I2436
sV\u787c
p284
I2371
sV\u6301
p285
I1336
sV\u6280
p286
I1271
sV\u7f6a
p287
I2645
sV\u6807
p288
I1653
sV\u6b86
p289
I1765
sV\u4e88
p290
I63
sV\u8d8a
p291
I3216
sV\u540f
p292
I494
sV\u778e
p293
I2326
sV\u7b11
p294
I2484
sV\u5992
p295
I787
sV\u5c94
p296
I954
sV\u8017
p297
I2677
sV\u6396
p298
I1388
sV\u889c
p299
I3019
sV\u6c1f
p300
I1795
sV\u8f9e
p301
I3284
sV\u5321
p302
I395
sV\u52a0
p303
I364
sV\u7525
p304
I2196
sV\u7827
p305
I2356
sV\u5ba6
p306
I877
sV\u7f29
p307
I2633
sV\u60ac
p308
I1171
sV\u8d35
p309
I3178
sV\u9739
p310
I3593
sV\u7a3b
p311
I2445
sV\u8eba
p312
I3256
sV\u5c3f
p313
I931
sV\u6643
p314
I1543
sV\u61c2
p315
I1220
sV\u6545
p316
I1473
sV\u84c4
p317
I2912
sV\u8bc6
p318
I3087
sV\u9176
p319
I3401
sV\u514d
p320
I245
sV\u8fa3
p321
I3286
sV\u57ce
p322
I700
sV\u7b51
p323
I2496
sV\u95f9
p324
I3510
sV\u79d2
p325
I2425
sV\u63d6
p326
I1407
sV\u6c5f
p327
I1816
sV\u4fde
p328
I190
sV\u5361
p329
I420
sV\u72e0
p330
I2128
sV\u7663
p331
I2265
sV\u5565
p332
I596
sV\u74e4
p333
I2186
sV\u5f69
p334
I1085
sV\u626b
p335
I1259
sV\u4e73
p336
I60
sV\u8d75
p337
I3211
sV\u5077
p338
I217
sV\u53f6
p339
I480
sV\u7779
p340
I2323
sV\u76f8
p341
I2300
sV\u9a7b
p342
I3682
sV\u95fa
p343
I3511
sV\u597d
p344
I780
sV\u5c7f
p345
I951
sV\u6002
p346
I1128
sV\u6485
p347
I1442
sV\u9080
p348
I3358
sV\u4e89
p349
I64
sV\u88ad
p350
I3021
sV\u538b
p351
I439
sV\u8c0a
p352
I3125
sV\u508d
p353
I222
sV\u7403
p354
I2166
sV\u758f
p355
I2221
sV\u560e
p356
I622
sV\u7a91
p357
I2460
sV\u7812
p358
I2352
sV\u7c95
p359
I2530
sV\u5d14
p360
I972
sV\u6216
p361
I1234
sV\u8718
p362
I2983
sV\u6e24
p363
I1953
sV\u6d9f
p364
I1912
sV\u8e1e
p365
I3238
sV\u52a1
p366
I365
sV\u5320
p367
I394
sV\u57a3
p368
I693
sV\u9022
p369
I3339
sV\u94a5
p370
I3433
sV\u5524
p371
I584
sV\u7f28
p372
I2632
sV\u83ab
p373
I2873
sV\u8986
p374
I3043
sV\u65af
p375
I1505
sV\u6fb3
p376
I2014
sV\u8d34
p377
I3177
sV\u51b7
p378
I289
sV\u5236
p379
I336
sV\u9738
p380
I3592
sV\u6e34
p381
I1957
sV\u7f8a
p382
I2648
sV\u64c5
p383
I1457
sV\u53cb
p384
I456
sV\u714c
p385
I2072
sV\u564e
p386
I631
sV\u5b50
p387
I837
sV\u7852
p388
I2364
sV\u7cd5
p389
I2543
sV\u8bfa
p390
I3116
sV\u66d9
p391
I1567
sV\u6bdb
p392
I1785
sV\u73bb
p393
I2160
sV\u8ddf
p394
I3228
sV\u4e5e
p395
I53
sV\u72e1
p396
I2129
sV\u5360
p397
I419
sV\u77e3
p398
I2338
sV\u54e5
p399
I569
sV\u5564
p400
I595
sV\u79e7
p401
I2430
sV\u7ee9
p402
I2606
sV\u60ed
p403
I1189
sV\u8c13
p404
I3130
sV\u666e
p405
I1553
sV\u6cf5
p406
I1867
sV\u6d74
p407
I1900
sV\u96f9
p408
I3580
sV\u7f15
p409
I2626
sV\u5bfb
p410
I907
sV\u997c
p411
I3661
sV\u6380
p412
I1379
sV\u6405
p413
I1418
sV\u8584
p414
I2933
sV\u4e09
p415
I5
sV\u4f88
p416
I165
sV\u500d
p417
I198
sV\u518c
p418
I272
sV\u568e
p419
I636
sV\u7236
p420
I2095
sV\u5f13
p421
I1064
sV\u5892
p422
I723
sV\u6296
p423
I1279
sV\u699c
p424
I1724
sV\u8d1f
p425
I3159
sV\u5723
p426
I659
sV\u90a2
p427
I3361
sV\u75a4
p428
I2228
sV\u5927
p429
I749
sV\u9e7f
p430
I3734
sV\u632b
p431
I1355
sV\u7caa
p432
I2536
sV\u652f
p433
I1467
sV\u66ae
p434
I1565
sV\u6a31
p435
I1735
sV\u8bb0
p436
I3072
sV\u6f33
p437
I2000
sV\u8db4
p438
I3221
sV\u72b6
p439
I2119
sV\u73a9
p440
I2155
sV\u6241
p441
I1244
sV\u6743
p442
I1600
sV\u80a0
p443
I2707
sV\u4e49
p444
I39
sV\u8fc8
p445
I3300
sV\u6cca
p446
I1854
sV\u904d
p447
I3348
sV\u51cc
p448
I296
sV\u754f
p449
I2211
sV\u76ce
p450
I2285
sV\u9f50
p451
I3748
sV\u5bd0
p452
I895
sV\u5f53
p453
I1079
sV\u5c55
p454
I943
sV\u9c81
p455
I3709
sV\u62d6
p456
I1312
sV\u9e26
p457
I3721
sV\u6ede
p458
I1984
sV\u7261
p459
I2106
sV\u53e0
p460
I466
sV\u7763
p461
I2319
sV\u8de8
p462
I3229
sV\u8350
p463
I2859
sV\u836b
p464
I2867
sV\u5cea
p465
I966
sV\u606d
p466
I1155
sV\u86ee
p467
I2974
sV\u6a71
p468
I1739
sV\u4f73
p469
I162
sV\u9f9a
p470
I3753
sV\u5177
p471
I262
sV\u54fa
p472
I577
sV\u987d
p473
I3624
sV\u6400
p474
I1415
sV\u8083
p475
I2695
sV\u8702
p476
I2979
sV\u8e87
p477
I3251
sV\u9600
p478
I3514
sV\u6808
p479
I1654
sV\u548b
p480
I541
sV\u8292
p481
I2816
sV\u82ac
p482
I2821
sV\u5893
p483
I724
sV\u7b95
p484
I2507
sV\u6697
p485
I1564
sV\u9f0e
p486
I3744
sV\u8018
p487
I2678
sV\u6c9b
p488
I1833
sV\u631a
p489
I1343
sV\u4f9d
p490
I170
sV\u4e1c
p491
I18
sV\u75a1
p492
I2227
sV\u5420
p493
I504
sV\u50a3
p494
I223
sV\u5224
p495
I330
sV\u5ea7
p496
I1046
sV\u82af
p497
I2823
sV\u94c1
p498
I3445
sV\u6c30
p499
I1802
sV\u68b3
p500
I1694
sV\u6bb5
p501
I1771
sV\u56b7
p502
I639
sV\u9038
p503
I3341
sV\u533a
p504
I399
sV\u5fbd
p505
I1109
sV\u968b
p506
I3556
sV\u7abf
p507
I2469
sV\u793e
p508
I2398
sV\u65c1
p509
I1509
sV\u80c3
p510
I2722
sV\u6742
p511
I1599
sV\u7237
p512
I2096
sV\u4ec7
p513
I94
sV\u6d46
p514
I1887
sV\u89c9
p515
I3050
sV\u6848
p516
I1672
sV\u764c
p517
I2264
sV\u714e
p518
I2073
sV\u5f52
p519
I1078
sV\u6556
p520
I1478
sV\u8058
p521
I2692
sV\u6cdb
p522
I1857
sV\u830e
p523
I2848
sV\u4fdd
p524
I189
sV\u695e
p525
I1718
sV\u55e1
p526
I618
sV\u9762
p527
I3601
sV\u53e5
p528
I469
sV\u7ee7
p529
I2605
sV\u79e9
p530
I2431
sV\u5b6a
p531
I850
sV\u62ef
p532
I1327
sV\u816e
p533
I2760
sV\u6df1
p534
I1938
sV\u6c70
p535
I1821
sV\u88f3
p536
I3030
sV\u8bf5
p537
I3113
sV\u96f7
p538
I3579
sV\u88e4
p539
I3029
sV\u51f9
p540
I310
sV\u7078
p541
I2025
sV\u5cfb
p542
I969
sV\u5ffd
p543
I1124
sV\u5e7c
p544
I1027
sV\u7aff
p545
I2481
sV\u8003
p546
I2671
sV\u8305
p547
I2847
sV\u6284
p548
I1272
sV\u4e07
p549
I3
sV\u6b8a
p550
I1767
sV\u970d
p551
I3586
sV\u978d
p552
I3607
sV\u775b
p553
I2317
sV\u5f92
p554
I1102
sV\u8098
p555
I2703
sV\u6c1b
p556
I1794
sV\u80af
p557
I2715
sV\u6e9c
p558
I1971
sV\u6a1f
p559
I1732
sV\u8d4b
p560
I3191
sV\u82f1
p561
I2841
sV\u57a2
p562
I692
sV\u5e27
p563
I1011
sV\u5929
p564
I750
sV\u58a8
p565
I728
sV\u5baa
p566
I878
sV\u672d
p567
I1591
sV\u97f3
p568
I3615
sV\u6d31
p569
I1879
sV\u7ed3
p570
I2592
sV\u789f
p571
I2379
sV\u70b8
p572
I2041
sV\u804b
p573
I2689
sV\u7a3f
p574
I2448
sV\u79be
p575
I2416
sV\u6043
p576
I1143
sV\u6345
p577
I1360
sV\u62c4
p578
I1299
sV\u6dc6
p579
I1927
sV\u7a76
p580
I2452
sV\u574d
p581
I668
sV\u8f69
p582
I3260
sV\u71ce
p583
I2087
sV\u8e66
p584
I3245
sV\u5b55
p585
I839
sV\u9f84
p586
I3750
sV\u6c5b
p587
I1813
sV\u5561
p588
I594
sV\u9063
p589
I3352
sV\u77e2
p590
I2337
sV\u52e4
p591
I382
sV\u5de6
p592
I983
sV\u78e8
p593
I2392
sV\u846b
p594
I2902
sV\u676d
p595
I1614
sV\u626f
p596
I1263
sV\u6cf0
p597
I1865
sV\u8bbf
p598
I3082
sV\u9677
p599
I3553
sV\u5179
p600
I264
sV\u7f55
p601
I2640
sV\u7c7b
p602
I2526
sV\u867e
p603
I2956
sV\u7efc
p604
I2615
sV\u5a7f
p605
I827
sV\u6ed4
p606
I1982
sV\u6500
p607
I1463
sV\u8d5a
p608
I3199
sV\u6602
p609
I1527
sV\u8304
p610
I2846
sV\u7b80
p611
I2504
sV\u6a0a
p612
I1731
sV\u5993
p613
I788
sV\u7b14
p614
I2485
sV\u6797
p615
I1624
sV\u6d9b
p616
I1910
sV\u621a
p617
I1236
sV\u94a1
p618
I3431
sV\u58a9
p619
I729
sV\u96cf
p620
I3574
sV\u672c
p621
I1590
sV\u8d30
p622
I3175
sV\u4e32
p623
I28
sV\u7436
p624
I2175
sV\u70b9
p625
I2042
sV\u523a
p626
I340
sV\u7ebd
p627
I2578
sV\u5bbf
p628
I888
sV\u783e
p629
I2361
sV\u81c3
p630
I2778
sV\u62c5
p631
I1300
sV\u8fc7
p632
I3299
sV\u8c46
p633
I3147
sV\u68c9
p634
I1696
sV\u96cd
p635
I3573
sV\u90e7
p636
I3377
sV\u59d3
p637
I800
sV\u5b54
p638
I838
sV\u7238
p639
I2097
sV\u8e0a
p640
I3235
sV\u4f5c
p641
I155
sV\u94e1
p642
I3452
sV\u9662
p643
I3546
sV\u5364
p644
I422
sV\u5fe7
p645
I1119
sV\u7968
p646
I2406
sV\u5a6a
p647
I824
sV\u8d70
p648
I3209
sV\u8e72
p649
I3248
sV\u7476
p650
I2181
sV\u70f9
p651
I2062
sV\u5178
p652
I263
sV\u727a
p653
I2113
sV\u7efd
p654
I2616
sV\u5f7c
p655
I1093
sV\u5bff
p656
I909
sV\u987e
p657
I3625
sV\u6401
p658
I1416
sV\u6682
p659
I1560
sV\u8205
p660
I2788
sV\u950b
p661
I3468
sV\u8a8a
p662
I3057
sV\u708e
p663
I2031
sV\u5c11
p664
I916
sV\u7b94
p665
I2506
sV\u6717
p666
I1583
sV\u8019
p667
I2679
sV\u8198
p668
I2770
sV\u6d1b
p669
I1875
sV\u629a
p670
I1282
sV\u4e1d
p671
I19
sV\u6f9c
p672
I2012
sV\u5f27
p673
I1073
sV\u59a8
p674
I792
sV\u652b
p675
I1466
sV\u662d
p676
I1539
sV\u632f
p677
I1356
sV\u80ae
p678
I2714
sV\u8c31
p679
I3143
sV\u4eb2
p680
I87
sV\u6bb4
p681
I1770
sV\u7737
p682
I2312
sV\u9b54
p683
I3707
sV\u5e3d
p684
I1015
sV\u78be
p685
I2385
sV\u89c8
p686
I3049
sV\u964d
p687
I3541
sV\u534f
p688
I409
sV\u90ce
p689
I3373
sV\u5c51
p690
I942
sV\u7ed2
p691
I2591
sV\u8757
p692
I2989
sV\u84d6
p693
I2915
sV\u8d5b
p694
I3200
sV\u4e5d
p695
I52
sV\u8fdc
p696
I3308
sV\u9163
p697
I3394
sV\u56e2
p698
I646
sV\u5265
p699
I352
sV\u53e4
p700
I468
sV\u955c
p701
I3494
sV\u5ce6
p702
I964
sV\u59e8
p703
I805
sV\u67ec
p704
I1646
sV\u836f
p705
I2868
sV\u60ee
p706
I1190
sV\u4ef2
p707
I114
sV\u8bf4
p708
I3112
sV\u5777
p709
I685
sV\u74f6
p710
I2189
sV\u51f8
p711
I309
sV\u52fa
p712
I383
sV\u5e7d
p713
I1028
sV\u7ffc
p714
I2668
sV\u8854
p715
I3002
sV\u6781
p716
I1619
sV\u6f06
p717
I1993
sV\u6b89
p718
I1766
sV\u768b
p719
I2274
sV\u540c
p720
I491
sV\u730e
p721
I2137
sV\u5e10
p722
I1002
sV\u7814
p723
I2353
sV\u8258
p724
I2806
sV\u6218
p725
I1235
sV\u4e9b
p726
I74
sV\u611a
p727
I1201
sV\u6d9d
p728
I1911
sV\u8c1c
p729
I3133
sV\u52a3
p730
I366
sV\u915a
p731
I3391
sV\u5f26
p732
I1072
sV\u7ba9
p733
I2510
sV\u592a
p734
I751
sV\u65ad
p735
I1504
sV\u642c
p736
I1426
sV\u60af
p737
I1172
sV\u8fb1
p738
I3291
sV\u4e30
p739
I27
sV\u6d32
p740
I1880
sV\u7736
p741
I2311
sV\u5238
p742
I338
sV\u9ebb
p743
I3737
sV\u5c3c
p744
I928
sV\u9f13
p745
I3745
sV\u6e0a
p746
I1944
sV\u4f46
p747
I145
sV\u8bc9
p748
I3089
sV\u50cf
p749
I228
sV\u534e
p750
I408
sV\u9ad3
p751
I3699
sV\u5854
p752
I717
sV\u6756
p753
I1607
sV\u6258
p754
I1253
sV\u8ddd
p755
I3227
sV\u9891
p756
I3636
sV\u8c26
p757
I3137
sV\u71e5
p758
I2089
sV\u5f66
p759
I1084
sV\u8f66
p760
I3257
sV\u65ed
p761
I1522
sV\u846c
p762
I2903
sV\u60ef
p763
I1191
sV\u636e
p764
I1375
sV\u4ff1
p765
I196
sV\u4e70
p766
I58
sV\u74f7
p767
I2190
sV\u9776
p768
I3605
sV\u53f9
p769
I483
sV\u9c7c
p770
I3708
sV\u7b7e
p771
I2503
sV\u8680
p772
I2957
sV\u6084
p773
I1162
sV\u8f86
p774
I3271
sV\u548c
p775
I542
sV\u900f
p776
I3328
sV\u5e90
p777
I1035
sV\u5915
p778
I744
sV\u80ef
p779
I2731
sV\u6298
p780
I1281
sV\u4e1b
p781
I17
sV\u8d1d
p782
I3157
sV\u7ff1
p783
I2666
sV\u5c27
p784
I923
sV\u9e70
p785
I3733
sV\u8e4b
p786
I3244
sV\u9aa8
p787
I3697
sV\u64ac
p788
I1450
sV\u602f
p789
I1141
sV\u6f31
p790
I1999
sV\u6db2
p791
I1922
sV\u5339
p792
I398
sV\u5bbe
p793
I887
sV\u86c0
p794
I2965
sV\u6c47
p795
I1808
sV\u6b49
p796
I1752
sV\u884d
p797
I3001
sV\u964b
p798
I3539
sV\u954d
p799
I3491
sV\u504f
p800
I212
sV\u7f51
p801
I2639
sV\u9ea6
p802
I3736
sV\u8457
p803
I2898
sV\u62d8
p804
I1313
sV\u6e5b
p805
I1964
sV\u9ece
p806
I3740
sV\u8bde
p807
I3099
sV\u5761
p808
I680
sV\u56e0
p809
I645
sV\u75e2
p810
I2250
sV\u5165
p811
I251
sV\u70e4
p812
I2053
sV\u5b69
p813
I849
sV\u866b
p814
I2952
sV\u84ec
p815
I2918
sV\u606f
p816
I1156
sV\u8c6a
p817
I3151
sV\u4ef0
p818
I113
sV\u88f4
p819
I3031
sV\u97f6
p820
I3617
sV\u72f8
p821
I2135
sV\u5e7b
p822
I1026
sV\u51fa
p823
I311
sV\u987f
p824
I3626
sV\u8681
p825
I2958
sV\u6700
p826
I1577
sV\u6402
p827
I1417
sV\u8a89
p828
I3056
sV\u802a
p829
I2680
sV\u578b
p830
I689
sV\u950c
p831
I3469
sV\u718f
p832
I2081
sV\u832c
p833
I2852
sV\u6597
p834
I1495
sV\u7fd8
p835
I2662
sV\u4f9b
p836
I169
sV\u8084
p837
I2696
sV\u7720
p838
I2307
sV\u7422
p839
I2171
sV\u5e26
p840
I1010
sV\u7b28
p841
I2488
sV\u67ab
p842
I1631
sV\u582a
p843
I712
sV\u64ad
p844
I1451
sV\u852c
p845
I2925
sV\u622e
p846
I1238
sV\u4f30
p847
I138
sV\u8bb3
p848
I3074
sV\u55b7
p849
I613
sV\u5636
p850
I628
sV\u72b9
p851
I2120
sV\u503a
p852
I208
sV\u7f13
p853
I2624
sV\u6740
p854
I1598
sV\u60c5
p855
I1176
sV\u83b7
p856
I2876
sV\u57cb
p857
I699
sV\u54cd
p858
I564
sV\u754c
p859
I2210
sV\u51cf
p860
I297
sV\u7ed1
p861
I2590
sV\u7f50
p862
I2638
sV\u5bd3
p863
I897
sV\u58d5
p864
I731
sV\u5954
p865
I769
sV\u65d7
p866
I1513
sV\u62d9
p867
I1314
sV\u8fdb
p868
I3307
sV\u805a
p869
I2693
sV\u79bb
p870
I2414
sV\u5760
p871
I679
sV\u53e3
p872
I467
sV\u5462
p873
I531
sV\u7164
p874
I2075
sV\u5de7
p875
I984
sV\u5ae9
p876
I836
sV\u82e6
p877
I2838
sV\u656c
p878
I1486
sV\u626e
p879
I1262
sV\u4f70
p880
I161
sV\u6c72
p881
I1822
sV\u68f5
p882
I1706
sV\u95f7
p883
I3508
sV\u5676
p884
I635
sV\u5378
p885
I432
sV\u5ffb
p886
I1123
sV\u59ff
p887
I808
sV\u9a7e
p888
I3684
sV\u9a70
p889
I3676
sV\u90c1
p890
I3371
sV\u8303
p891
I2845
sV\u6482
p892
I1441
sV\u8005
p893
I2672
sV\u4e86
p894
I62
sV\u770b
p895
I2305
sV\u540d
p896
I492
sV\u5f90
p897
I1101
sV\u7c92
p898
I2529
sV\u5815
p899
I709
sV\u8517
p900
I2921
sV\u6696
p901
I1563
sV\u6398
p902
I1389
sV\u809a
p903
I2704
sV\u97a0
p904
I3609
sV\u5323
p905
I396
sV\u919a
p906
I3409
sV\u51a4
p907
I281
sV\u7d27
p908
I2554
sV\u5ea6
p909
I1045
sV\u5a29
p910
I818
sV\u672b
p911
I1589
sV\u642d
p912
I1427
sV\u812f
p913
I2748
sV\u9c9c
p914
I3711
sV\u8fb0
p915
I3290
sV\u69b4
p916
I1726
sV\u7537
p917
I2206
sV\u96b6
p918
I3564
sV\u5239
p919
I339
sV\u9f3b
p920
I3747
sV\u86f0
p921
I2975
sV\u5c3d
p922
I929
sV\u95f4
p923
I3507
sV\u64c2
p924
I1456
sV\u6d47
p925
I1888
sV\u4ec6
p926
I93
sV\u82cd
p927
I2829
sV\u7855
p928
I2365
sV\u59d4
p929
I801
sV\u4f5b
p930
I154
sV\u80da
p931
I2727
sV\u6c5d
p932
I1814
sV\u895f
p933
I3040
sV\u9661
p934
I3545
sV\u57e0
p935
I703
sV\u74e2
p936
I2184
sV\u5065
p937
I215
sV\u51e4
p938
I303
sV\u7ee6
p939
I2604
sV\u5be8
p940
I903
sV\u65ec
p941
I1521
sV\u4e71
p942
I59
sV\u8ff0
p943
I3316
sV\u9165
p944
I3395
sV\u96f6
p945
I3578
sV\u7279
p946
I2112
sV\u53f8
p947
I482
sV\u5f7b
p948
I1092
sV\u76fe
p949
I2302
sV\u7c7d
p950
I2527
sV\u8574
p951
I2931
sV\u8981
p952
I3042
sV\u6c83
p953
I1828
sV\u8f85
p954
I3270
sV\u8106
p955
I2739
sV\u952d
p956
I3481
sV\u7b8d
p957
I2505
sV\u5e8f
p958
I1034
sV\u5d0e
p959
I971
sV\u9010
p960
I3329
sV\u9493
p961
I3425
sV\u9614
p962
I3522
sV\u809b
p963
I2705
sV\u4f1a
p964
I130
sV\u821c
p965
I2794
sV\u865a
p966
I2950
sV\u7126
p967
I2069
sV\u5428
p968
I507
sV\u88ab
p969
I3020
sV\u8bad
p970
I3069
sV\u6eaf
p971
I1974
sV\u8d2e
p972
I3173
sV\u9189
p973
I3406
sV\u5c38
p974
I925
sV\u50bb
p975
I227
sV\u5f3a
p976
I1077
sV\u76bf
p977
I2279
sV\u553e
p978
I589
sV\u89c1
p979
I3044
sV\u8840
p980
I2998
sV\u8fc5
p981
I3298
sV\u8e44
p982
I3242
sV\u62c7
p983
I1302
sV\u8146
p984
I2752
sV\u85c9
p985
I2937
sV\u6448
p986
I1433
sV\u78cb
p987
I2389
sV\u7ecf
p988
I2589
sV\u51d1
p989
I298
sV\u904f
p990
I3349
sV\u5352
p991
I411
sV\u655e
p992
I1482
sV\u9e64
p993
I3732
sV\u7410
p994
I2170
sV\u5468
p995
I532
sV\u576a
p996
I683
sV\u8bed
p997
I3108
sV\u6d6e
p998
I1899
sV\u6070
p999
I1157
sV\u8247
p1000
I2805
sV\u6674
p1001
I1556
sV\u5976
p1002
I777
sV\u50fb
p1003
I233
sV\u8c03
p1004
I3121
sV\u9a8c
p1005
I3690
sV\u9999
p1006
I3671
sV\u5413
p1007
I497
sV\u9694
p1008
I3559
sV\u631d
p1009
I1345
sV\u829c
p1010
I2817
sV\u661f
p1011
I1534
sV\u98a0
p1012
I3643
sV\u5ba2
p1013
I874
sV\u5f25
p1014
I1071
sV\u7ea4
p1015
I2562
sV\u9970
p1016
I3655
sV\u7529
p1017
I2198
sV\u54a8
p1018
I550
sV\u77aa
p1019
I2331
sV\u6aac
p1020
I1742
sV\u6e2f
p1021
I1956
sV\u8131
p1022
I2749
sV\u83b2
p1023
I2875
sV\u6735
p1024
I1595
sV\u66b4
p1025
I1566
sV\u5cb8
p1026
I960
sV\u903b
p1027
I3342
sV\u563f
p1028
I630
sV\u75be
p1029
I2238
sV\u68c0
p1030
I1695
sV\u81a8
p1031
I2774
sV\u6247
p1032
I1245
sV\u81c6
p1033
I2779
sV\u8549
p1034
I2929
sV\u7076
p1035
I2024
sV\u5acc
p1036
I834
sV\u9e4f
p1037
I3731
sV\u5151
p1038
I246
sV\u76d4
p1039
I2290
sV\u7578
p1040
I2219
sV\u6d59
p1041
I1894
sV\u62dc
p1042
I1316
sV\u5267
p1043
I353
sV\u54e8
p1044
I571
sV\u886b
p1045
I3009
sV\u6dee
p1046
I1937
sV\u60f0
p1047
I1192
sV\u83f2
p1048
I2887
sV\u66f4
p1049
I1572
sV\u7a77
p1050
I2453
sV\u72fc
p1051
I2136
sV\u6881
p1052
I1683
sV\u8001
p1053
I2670
sV\u732a
p1054
I2142
sV\u6e85
p1055
I1968
sV\u6387
p1056
I1381
sV\u998b
p1057
I3667
sV\u7a8d
p1058
I2459
sV\u9091
p1059
I3359
sV\u5212
p1060
I322
sV\u6816
p1061
I1659
sV\u6c99
p1062
I1832
sV\u819b
p1063
I2771
sV\u4e1a
p1064
I16
sV\u829d
p1065
I2818
sV\u879f
p1066
I2993
sV\u641e
p1067
I1424
sV\u5026
p1068
I206
sV\u94a9
p1069
I3437
sV\u7528
p1070
I2197
sV\u762a
p1071
I2260
sV\u4faf
p1072
I179
sV\u6c2e
p1073
I1800
sV\u6734
p1074
I1594
sV\u7cb9
p1075
I2540
sV\u51bb
p1076
I290
sV\u543e
p1077
I521
sV\u88c1
p1078
I3023
sV\u7761
p1079
I2318
sV\u8dc3
p1080
I3223
sV\u4ec5
p1081
I92
sV\u7eb7
p1082
I2574
sV\u83c7
p1083
I2879
sV\u84c9
p1084
I2913
sV\u6548
p1085
I1474
sV\u59cb
p1086
I797
sV\u5c4e
p1087
I940
sV\u90d1
p1088
I3374
sV\u79b9
p1089
I2413
sV\u55d3
p1090
I616
sV\u96d5
p1091
I3575
sV\u6bd7
p1092
I1783
sV\u8d58
p1093
I3198
sV\u948e
p1094
I3423
sV\u5960
p1095
I772
sV\u7ee5
p1096
I2603
sV\u5f64
p1097
I1083
sV\u54e9
p1098
I572
sV\u566a
p1099
I633
sV\u8b6c
p1100
I3060
sV\u4fef
p1101
I195
sV\u6170
p1102
I1214
sV\u7a92
p1103
I2461
sV\u8774
p1104
I2990
sV\u7bf7
p1105
I2520
sV\u9876
p1106
I3619
sV\u51fb
p1107
I312
sV\u7566
p1108
I2216
sV\u77ff
p1109
I2347
sV\u6e05
p1110
I1943
sV\u4f84
p1111
I164
sV\u6307
p1112
I1338
sV\u8086
p1113
I2697
sV\u868a
p1114
I2960
sV\u7a0d
p1115
I2439
sV\u5b8c
p1116
I862
sV\u5f0f
p1117
I1063
sV\u7011
p1118
I2017
sV\u8896
p1119
I3018
sV\u8bc5
p1120
I3086
sV\u4e9a
p1121
I73
sV\u671f
p1122
I1586
sV\u649e
p1123
I1447
sV\u5821
p1124
I710
sV\u9e25
p1125
I3720
sV\u7fa4
p1126
I2655
sV\u90a6
p1127
I3363
sV\u5429
p1128
I508
sV\u8bdb
p1129
I3097
sV\u4f2f
p1130
I137
sV\u6cae
p1131
I1842
sV\u91c9
p1132
I3412
sV\u5c39
p1133
I926
sV\u7eba
p1134
I2577
sV\u523d
p1135
I342
sV\u90b9
p1136
I3369
sV\u8d43
p1137
I3188
sV\u4e45
p1138
I37
sV\u4fc4
p1139
I183
sV\u80c6
p1140
I2723
sV\u594b
p1141
I765
sV\u86ca
p1142
I2968
sV\u5bcc
p1143
I894
sV\u52d2
p1144
I379
sV\u9655
p1145
I3543
sV\u57d4
p1146
I701
sV\u6dd8
p1147
I1932
sV\u6eda
p1148
I1983
sV\u83dc
p1149
I2883
sV\u675f
p1150
I1609
sV\u64de
p1151
I1461
sV\u5367
p1152
I423
sV\u70e6
p1153
I2054
sV\u95e8
p1154
I3500
sV\u96ea
p1155
I3577
sV\u8bec
p1156
I3107
sV\u4f6f
p1157
I160
sV\u8fdd
p1158
I3309
sV\u773a
p1159
I2313
sV\u67f4
p1160
I1650
sV\u7b77
p1161
I2501
sV\u58f6
p1162
I738
sV\u5c79
p1163
I950
sV\u517b
p1164
I265
sV\u5efa
p1165
I1057
sV\u53fc
p1166
I484
sV\u94fe
p1167
I3462
sV\u8a00
p1168
I3054
sV\u6e83
p1169
I1967
sV\u8902
p1170
I3034
sV\u6d85
p1171
I1904
sV\u8087
p1172
I2698
sV\u8700
p1173
I2978
sV\u6789
p1174
I1621
sV\u8e22
p1175
I3239
sV\u9a8b
p1176
I3689
sV\u780c
p1177
I2350
sV\u7f0e
p1178
I2623
sV\u5112
p1179
I234
sV\u6897
p1180
I1686
sV\u8f99
p1181
I3281
sV\u4e18
p1182
I14
sV\u629b
p1183
I1283
sV\u819d
p1184
I2773
sV\u601c
p1185
I1134
sV\u5ba1
p1186
I873
sV\u5a20
p1187
I816
sV\u5c24
p1188
I922
sV\u77a9
p1189
I2330
sV\u83b1
p1190
I2874
sV\u8230
p1191
I2799
sV\u82df
p1192
I2836
sV\u7fb9
p1193
I2656
sV\u5e38
p1194
I1014
sV\u915e
p1195
I3393
sV\u503c
p1196
I209
sV\u573e
p1197
I664
sV\u6bc1
p1198
I1774
sV\u8fc2
p1199
I3296
sV\u6346
p1200
I1361
sV\u7acb
p1201
I2470
sV\u854a
p1202
I2930
sV\u79cd
p1203
I2423
sV\u584c
p1204
I715
sV\u53d1
p1205
I459
sV\u5250
p1206
I348
sV\u7f62
p1207
I2643
sV\u75d5
p1208
I2246
sV\u8fd9
p1209
I3306
sV\u4e58
p1210
I50
sV\u62db
p1211
I1315
sV\u6d5a
p1212
I1895
sV\u84df
p1213
I2917
sV\u5be1
p1214
I901
sV\u7ee3
p1215
I2602
sV\u5962
p1216
I773
sV\u5de5
p1217
I982
sV\u50e7
p1218
I230
sV\u77e9
p1219
I2340
sV\u5668
p1220
I632
sV\u556a
p1221
I598
sV\u886c
p1222
I3010
sV\u6f6e
p1223
I2008
sV\u83f1
p1224
I2886
sV\u6270
p1225
I1264
sV\u66f3
p1226
I1571
sV\u78f7
p1227
I2393
sV\u5e78
p1228
I1025
sV\u51fd
p1229
I313
sV\u707c
p1230
I2026
sV\u6a80
p1231
I1740
sV\u4e03
p1232
I2
sV\u6982
p1233
I1721
sV\u996d
p1234
I3652
sV\u8386
p1235
I2870
sV\u6709
p1236
I1579
sV\u8fed
p1237
I3315
sV\u7a0b
p1238
I2438
sV\u590d
p1239
I742
sV\u788c
p1240
I2373
sV\u5c0f
p1241
I915
sV\u7f8e
p1242
I2650
sV\u5192
p1243
I274
sV\u6817
p1244
I1660
sV\u6b96
p1245
I1769
sV\u4f19
p1246
I129
sV\u8e2a
p1247
I3241
sV\u8d64
p1248
I3206
sV\u8f9b
p1249
I3282
sV\u9e23
p1250
I3719
sV\u901a
p1251
I3333
sV\u7ca4
p1252
I2534
sV\u53a6
p1253
I446
sV\u7729
p1254
I2309
sV\u692d
p1255
I1712
sV\u80f3
p1256
I2733
sV\u6c2f
p1257
I1801
sV\u4fae
p1258
I178
sV\u906e
p1259
I3355
sV\u7837
p1260
I2359
sV\u5bb6
p1261
I884
sV\u5f39
p1262
I1076
sV\u5eb8
p1263
I1050
sV\u523b
p1264
I341
sV\u70bc
p1265
I2043
sV\u4e43
p1266
I36
sV\u7eca
p1267
I2586
sV\u6d45
p1268
I1886
sV\u6cc4
p1269
I1851
sV\u6749
p1270
I1602
sV\u5c4f
p1271
I941
sV\u5351
p1272
I410
sV\u72d0
p1273
I2124
sV\u8857
p1274
I3003
sV\u6bd6
p1275
I1782
sV\u4f59
p1276
I153
sV\u4ed8
p1277
I105
sV\u625b
p1278
I1254
sV\u60dc
p1279
I1181
sV\u67de
p1280
I1643
sV\u7ae0
p1281
I2475
sV\u53e6
p1282
I470
sV\u9769
p1283
I3602
sV\u96e8
p1284
I3576
sV\u75ea
p1285
I2251
sV\u4fee
p1286
I194
sV\u7877
p1287
I2370
sV\u5f79
p1288
I1091
sV\u7ef8
p1289
I2614
sV\u517d
p1290
I267
sV\u77fe
p1291
I2346
sV\u8f83
p1292
I3269
sV\u8206
p1293
I2789
sV\u6708
p1294
I1578
sV\u5b8b
p1295
I861
sV\u788d
p1296
I2374
sV\u9152
p1297
I3389
sV\u5012
p1298
I199
sV\u5495
p1299
I547
sV\u4f18
p1300
I128
sV\u8c1a
p1301
I3132
sV\u809d
p1302
I2706
sV\u659f
p1303
I1498
sV\u9a84
p1304
I3686
sV\u9aa1
p1305
I3695
sV\u7ca5
p1306
I2535
sV\u7784
p1307
I2324
sV\u5728
p1308
I660
sV\u8bab
p1309
I3068
sV\u68ad
p1310
I1691
sV\u6daf
p1311
I1921
sV\u62b1
p1312
I1292
sV\u8109
p1313
I2740
sV\u64b5
p1314
I1454
sV\u9b3c
p1315
I3702
sV\u5a36
p1316
I820
sV\u7eb9
p1317
I2576
sV\u7f38
p1318
I2636
sV\u53bb
p1319
I449
sV\u5c3a
p1320
I927
sV\u70bd
p1321
I2044
sV\u4fc3
p1322
I182
sV\u6842
p1323
I1668
sV\u6cc5
p1324
I1852
sV\u8d44
p1325
I3189
sV\u644a
p1326
I1434
sV\u82b9
p1327
I2826
sV\u7554
p1328
I2212
sV\u4ed9
p1329
I106
sV\u6f58
p1330
I2003
sV\u865e
p1331
I2951
sV\u5ae1
p1332
I835
sV\u6beb
p1333
I1787
sV\u8def
p1334
I3231
sV\u8d3c
p1335
I3183
sV\u62f1
p1336
I1328
sV\u67f3
p1337
I1649
sV\u7792
p1338
I2327
sV\u6574
p1339
I1489
sV\u5a76
p1340
I826
sV\u70fd
p1341
I2063
sV\u517c
p1342
I266
sV\u767e
p1343
I2269
sV\u8c05
p1344
I3122
sV\u7740
p1345
I2315
sV\u7b0b
p1346
I2483
sV\u80f0
p1347
I2732
sV\u780d
p1348
I2351
sV\u963f
p1349
I3532
sV\u5211
p1350
I321
sV\u9713
p1351
I3587
sV\u7092
p1352
I2032
sV\u5415
p1353
I498
sV\u9175
p1354
I3400
sV\u9898
p1355
I3640
sV\u4e19
p1356
I15
sV\u631b
p1357
I1344
sV\u74ee
p1358
I2188
sV\u601d
p1359
I1135
sV\u819c
p1360
I2772
sV\u5ba0
p1361
I872
sV\u7629
p1362
I2259
sV\u8d2f
p1363
I3174
sV\u4eae
p1364
I86
sV\u8231
p1365
I2800
sV\u60b2
p1366
I1173
sV\u5937
p1367
I757
sV\u533b
p1368
I400
sV\u96be
p1369
I3565
sV\u914b
p1370
I3386
sV\u8bc0
p1371
I3083
sV\u4f43
p1372
I144
sV\u88c2
p1373
I3024
sV\u6dc4
p1374
I1926
sV\u62c6
p1375
I1301
sV\u7b4b
p1376
I2493
sV\u80f6
p1377
I2734
sV\u7ece
p1378
I2588
sV\u5251
p1379
I349
sV\u73d0
p1380
I2163
sV\u5455
p1381
I527
sV\u75d4
p1382
I2245
sV\u4e59
p1383
I51
sV\u4fd8
p1384
I188
sV\u6ed1
p1385
I1980
sV\u5c65
p1386
I947
sV\u7167
p1387
I2076
sV\u95ea
p1388
I3501
sV\u9669
p1389
I3549
sV\u54ea
p1390
I573
sV\u7bd3
p1391
I2515
sV\u8475
p1392
I2905
sV\u8f7f
p1393
I3268
sV\u7977
p1394
I2408
sV\u78d5
p1395
I2391
sV\u7435
p1396
I2174
sV\u957f
p1397
I3499
sV\u56fe
p1398
I654
sV\u8d81
p1399
I3214
sV\u6f02
p1400
I1992
sV\u6687
p1401
I1561
sV\u5e0c
p1402
I1001
sV\u9a8f
p1403
I3691
sV\u8eac
p1404
I3253
sV\u7591
p1405
I2222
sV\u5410
p1406
I495
sV\u9093
p1407
I3360
sV\u5395
p1408
I441
sV\u679d
p1409
I1627
sV\u7531
p1410
I2202
sV\u96a7
p1411
I3563
sV\u9526
p1412
I3479
sV\u83e9
p1413
I2885
sV\u6cab
p1414
I1841
sV\u532a
p1415
I397
sV\u6234
p1416
I1240
sV\u5eb7
p1417
I1049
sV\u59b9
p1418
I794
sV\u7838
p1419
I2360
sV\u94bb
p1420
I3442
sV\u7b3a
p1421
I2490
sV\u52bf
p1422
I374
sV\u6c40
p1423
I1805
sV\u7d0a
p1424
I2551
sV\u6bc5
p1425
I1775
sV\u86c7
p1426
I2967
sV\u9760
p1427
I3599
sV\u94c0
p1428
I3444
sV\u5fcd
p1429
I1114
sV\u5e4c
p1430
I1018
sV\u594e
p1431
I766
sV\u5450
p1432
I526
sV\u9752
p1433
I3594
sV\u5254
p1434
I350
sV\u4ed7
p1435
I104
sV\u8d56
p1436
I3197
sV\u62df
p1437
I1317
sV\u5de1
p1438
I980
sV\u5c60
p1439
I945
sV\u5f62
p1440
I1082
sV\u5be5
p1441
I902
sV\u5566
p1442
I597
sV\u978b
p1443
I3606
sV\u82e5
p1444
I2837
sV\u4fed
p1445
I193
sV\u8e6c
p1446
I3246
sV\u65f1
p1447
I1523
sV\u60f3
p1448
I1193
sV\u8912
p1449
I3036
sV\u5ef7
p1450
I1056
sV\u5b7a
p1451
I853
sV\u77fd
p1452
I2345
sV\u52ff
p1453
I385
sV\u6d01
p1454
I1871
sV\u8d41
p1455
I3186
sV\u6a84
p1456
I1741
sV\u6109
p1457
I1199
sV\u94ed
p1458
I3455
sV\u7316
p1459
I2138
sV\u9511
p1460
I3471
sV\u5490
p1461
I545
sV\u5792
p1462
I690
sV\u6e17
p1463
I1948
sV\u671d
p1464
I1585
sV\u869c
p1465
I2963
sV\u821f
p1466
I2796
sV\u951a
p1467
I3474
sV\u9aa4
p1468
I3696
sV\u8f70
p1469
I3264
sV\u50a8
p1470
I224
sV\u4eac
p1471
I84
sV\u64b0
p1472
I1453
sV\u8033
p1473
I2681
sV\u8335
p1474
I2853
sV\u5939
p1475
I759
sV\u543b
p1476
I519
sV\u56bc
p1477
I640
sV\u6d41
p1478
I1885
sV\u6843
p1479
I1669
sV\u73ca
p1480
I2161
sV\u6f4d
p1481
I2002
sV\u5c4b
p1482
I939
sV\u83ca
p1483
I2880
sV\u8beb
p1484
I3106
sV\u9551
p1485
I3493
sV\u9053
p1486
I3350
sV\u5355
p1487
I413
sV\u6dd6
p1488
I1931
sV\u68d8
p1489
I1701
sV\u845b
p1490
I2899
sV\u8bda
p1491
I3096
sV\u7ffb
p1492
I2667
sV\u7ce0
p1493
I2548
sV\u98a7
p1494
I3645
sV\u90e8
p1495
I3378
sV\u8c6b
p1496
I3152
sV\u53ea
p1497
I471
sV\u6f6d
p1498
I2007
sV\u4eec
p1499
I112
sV\u8fa9
p1500
I3288
sV\u6073
p1501
I1158
sV\u62f4
p1502
I1330
sV\u5979
p1503
I779
sV\u547b
p1504
I536
sV\u5bfa
p1505
I906
sV\u76fc
p1506
I2301
sV\u527f
p1507
I358
sV\u82b1
p1508
I2824
sV\u6c81
p1509
I1826
sV\u9601
p1510
I3515
sV\u8d2a
p1511
I3169
sV\u6089
p1512
I1163
sV\u6108
p1513
I1198
sV\u620a
p1514
I1226
sV\u5b8f
p1515
I863
sV\u5510
p1516
I583
sV\u8482
p1517
I2906
sV\u4f97
p1518
I168
sV\u6c16
p1519
I1793
sV\u859b
p1520
I2934
sV\u871c
p1521
I2984
sV\u7d20
p1522
I2552
sV\u7aa5
p1523
I2468
sV\u77a7
p1524
I2329
sV\u5426
p1525
I505
sV\u722a
p1526
I2091
sV\u4ead
p1527
I85
sV\u7728
p1528
I2308
sV\u8baf
p1529
I3071
sV\u81b3
p1530
I2775
sV\u62b5
p1531
I1293
sV\u725f
p1532
I2105
sV\u5fb7
p1533
I1108
sV\u5938
p1534
I758
sV\u55bb
p1535
I614
sV\u773c
p1536
I2314
sV\u53bf
p1537
I450
sV\u503e
p1538
I210
sV\u6446
p1539
I1431
sV\u6148
p1540
I1206
sV\u7ecd
p1541
I2587
sV\u8863
p1542
I3006
sV\u54d1
p1543
I566
sV\u9550
p1544
I3492
sV\u810f
p1545
I2742
sV\u4fd7
p1546
I187
sV\u88d9
p1547
I3028
sV\u66dd
p1548
I1568
sV\u675c
p1549
I1608
sV\u5ce1
p1550
I963
sV\u5e62
p1551
I1020
sV\u7ae5
p1552
I2477
sV\u5b64
p1553
I847
sV\u97e7
p1554
I3612
sV\u70e9
p1555
I2056
sV\u5168
p1556
I252
sV\u6deb
p1557
I1935
sV\u526a
p1558
I355
sV\u4f6c
p1559
I159
sV\u6bef
p1560
I1788
sV\u6570
p1561
I1487
sV\u81f3
p1562
I2783
sV\u58f9
p1563
I739
sV\u5978
p1564
I778
sV\u95fb
p1565
I3512
sV\u7a7a
p1566
I2454
sV\u56fd
p1567
I653
sV\u903c
p1568
I3343
sV\u707e
p1569
I2027
sV\u8c01
p1570
I3120
sV\u628a
p1571
I1274
sV\u7f8c
p1572
I2649
sV\u788e
p1573
I2375
sV\u5411
p1574
I496
sV\u4f17
p1575
I127
sV\u75c5
p1576
I2239
sV\u679c
p1577
I1626
sV\u631f
p1578
I1347
sV\u7ea2
p1579
I2561
sV\u5a25
p1580
I817
sV\u5ba4
p1581
I876
sV\u94a6
p1582
I3434
sV\u8d2b
p1583
I3170
sV\u52aa
p1584
I369
sV\u4e2d
p1585
I26
sV\u65b0
p1586
I1506
sV\u8235
p1587
I2801
sV\u8e48
p1588
I3243
sV\u9cd6
p1589
I3715
sV\u753b
p1590
I2208
sV\u533f
p1591
I401
sV\u6c41
p1592
I1806
sV\u6dc0
p1593
I1925
sV\u8d4a
p1594
I3190
sV\u8bc4
p1595
I3085
sV\u8747
p1596
I2986
sV\u86fe
p1597
I2977
sV\u61c8
p1598
I1221
sV\u852b
p1599
I2924
sV\u5fcc
p1600
I1113
sV\u7b4f
p1601
I2494
sV\u98ce
p1602
I3646
sV\u76d2
p1603
I2289
sV\u53d4
p1604
I460
sV\u8859
p1605
I3004
sV\u655b
p1606
I1480
sV\u874e
p1607
I2988
sV\u67dc
p1608
I1642
sV\u635f
p1609
I1370
sV\u80de
p1610
I2729
sV\u5c61
p1611
I946
sV\u7ee2
p1612
I2601
sV\u54e6
p1613
I570
sV\u8d6b
p1614
I3208
sV\u7ea6
p1615
I2563
sV\u8e6d
p1616
I3247
sV\u6ed3
p1617
I1981
sV\u68ee
p1618
I1704
sV\u8471
p1619
I2904
sV\u66f2
p1620
I1570
sV\u63f4
p1621
I1413
sV\u9879
p1622
I3621
sV\u79f8
p1623
I2434
sV\u8389
p1624
I2871
sV\u767d
p1625
I2268
sV\u537f
p1626
I433
sV\u4e00
p1627
I0
sV\u6487
p1628
I1443
sV\u6389
p1629
I1383
sV\u6208
p1630
I1225
sV\u810a
p1631
I2741
sV\u9610
p1632
I3520
sV\u5195
p1633
I275
sV\u5014
p1634
I200
sV\u8c22
p1635
I3134
sV\u641c
p1636
I1423
sV\u609f
p1637
I1166
sV\u631e
p1638
I1346
sV\u5fa1
p1639
I1105
sV\u7d22
p1640
I2553
sV\u59a5
p1641
I791
sV\u5824
p1642
I711
sV\u94a7
p1643
I3435
sV\u53a9
p1644
I448
sV\u5228
p1645
I331
sV\u4eab
p1646
I83
sV\u8c2c
p1647
I3140
sV\u68af
p1648
I1692
sV\u8089
p1649
I2699
sV\u82b3
p1650
I2825
sV\u5bb9
p1651
I885
sV\u593a
p1652
I760
sV\u75bd
p1653
I2237
sV\u543c
p1654
I520
sV\u733e
p1655
I2146
sV\u8fc1
p1656
I3295
sV\u8d42
p1657
I3187
sV\u89c5
p1658
I3047
sV\u6746
p1659
I1601
sV\u63c9
p1660
I1402
sV\u814a
p1661
I2753
sV\u5dcd
p1662
I977
sV\u7239
p1663
I2098
sV\u71d5
p1664
I2088
sV\u6bd9
p1665
I1784
sV\u86db
p1666
I2972
sV\u695a
p1667
I1717
sV\u60df
p1668
I1182
sV\u635e
p1669
I1369
sV\u7ae3
p1670
I2476
sV\u59e5
p1671
I804
sV\u5766
p1672
I682
sV\u8b66
p1673
I3059
sV\u67f1
p1674
I1648
sV\u6670
p1675
I1555
sV\u62f3
p1676
I1329
sV\u6572
p1677
I1488
sV\u5bf9
p1678
I905
sV\u997a
p1679
I3660
sV\u55fd
p1680
I620
sV\u547c
p1681
I537
sV\u4f01
p1682
I120
sV\u6d82
p1683
I1903
sV\u6905
p1684
I1708
sV\u8884
p1685
I3014
sV\u6309
p1686
I1339
sV\u818a
p1687
I2768
sV\u9690
p1688
I3558
sV\u7115
p1689
I2066
sV\u7094
p1690
I2033
sV\u8c17
p1691
I3131
sV\u8f96
p1692
I3279
sV\u849c
p1693
I2909
sV\u7ea0
p1694
I2560
sV\u98a4
p1695
I3644
sV\u5427
p1696
I506
sV\u57a6
p1697
I694
sV\u7329
p1698
I2141
sV\u52a8
p1699
I367
sV\u4e2b
p1700
I25
sV\u8d2d
p1701
I3172
sV\u8bae
p1702
I3070
sV\u6731
p1703
I1593
sV\u9636
p1704
I3530
sV\u6233
p1705
I1239
sV\u8bc8
p1706
I3088
sV\u9ab8
p1707
I3698
sV\u563b
p1708
I629
sV\u901e
p1709
I3336
sV\u4ec0
p1710
I90
sV\u6447
p1711
I1432
sV\u6349
p1712
I1362
sV\u62c8
p1713
I1303
sV\u9a9a
p1714
I3694
sV\u61ca
p1715
I1222
sV\u5751
p1716
I672
sV\u76d0
p1717
I2287
sV\u75d2
p1718
I2244
sV\u6c57
p1719
I1812
sV\u655d
p1720
I1481
sV\u9709
p1721
I3585
sV\u5de2
p1722
I981
sV\u5965
p1723
I774
sV\u58e4
p1724
I732
sV\u8fd0
p1725
I3302
sV\u66f0
p1726
I1569
sV\u6273
p1727
I1265
sV\u7b79
p1728
I2502
sV\u767b
p1729
I2267
sV\u54fc
p1730
I578
sV\u507f
p1731
I218
sV\u8e81
p1732
I3250
sV\u8301
p1733
I2843
sV\u6b83
p1734
I1764
sV\u822a
p1735
I2797
sV\u6885
p1736
I1684
sV\u6587
p1737
I1491
sV\u6606
p1738
I1528
sV\u6289
p1739
I1273
sV\u5f8b
p1740
I1100
sV\u9c8d
p1741
I3710
sV\u798f
p1742
I2412
sV\u7a0e
p1743
I2440
sV\u7691
p1744
I2275
sV\u7095
p1745
I2034
sV\u4e16
p1746
I13
sV\u821e
p1747
I2795
sV\u5f20
p1748
I1070
sV\u5ba3
p1749
I875
sV\u55a7
p1750
I611
sV\u7626
p1751
I2258
sV\u52a9
p1752
I368
sV\u8fab
p1753
I3289
sV\u502a
p1754
I207
sV\u8d2c
p1755
I3171
sV\u63b3
p1756
I1398
sV\u9632
p1757
I3526
sV\u7fa1
p1758
I2654
sV\u77bb
p1759
I2334
sV\u54bd
p1760
I556
sV\u4ec1
p1761
I91
sV\u6c42
p1762
I1807
sV\u88c5
p1763
I3025
sV\u8944
p1764
I3039
sV\u62c9
p1765
I1304
sV\u804a
p1766
I2688
sV\u5d4c
p1767
I976
sV\u76d1
p1768
I2288
sV\u5750
p1769
I671
sV\u5154
p1770
I247
sV\u4e56
p1771
I49
sV\u9065
p1772
I3353
sV\u84dd
p1773
I2916
sV\u8feb
p1774
I3314
sV\u6770
p1775
I1616
sV\u9992
p1776
I3669
sV\u5df7
p1777
I993
sV\u5e76
p1778
I1024
sV\u7af9
p1779
I2480
sV\u903e
p1780
I3344
sV\u557c
p1781
I601
sV\u51ff
p1782
I314
sV\u4e01
p1783
I1
sV\u6c82
p1784
I1827
sV\u6805
p1785
I1652
sV\u6388
p1786
I1382
sV\u590f
p1787
I743
sV\u9611
p1788
I3521
sV\u5492
p1789
I546
sV\u7194
p1790
I2082
sV\u6d17
p1791
I1874
sV\u671b
p1792
I1584
sV\u841d
p1793
I2892
sV\u659c
p1794
I1497
sV\u611f
p1795
I1202
sV\u9e21
p1796
I3718
sV\u5229
p1797
I332
sV\u53a8
p1798
I447
sV\u6f2b
p1799
I1998
sV\u90aa
p1800
I3364
sV\u8c2d
p1801
I3141
sV\u84b2
p1802
I2910
sV\u5eb6
p1803
I1048
sV\u75bc
p1804
I2236
sV\u513f
p1805
I236
sV\u6fc0
p1806
I2015
sV\u6845
p1807
I1670
sV\u89c4
p1808
I3046
sV\u9981
p1809
I3663
sV\u86c6
p1810
I2966
sV\u9ecd
p1811
I3739
sV\u60ca
p1812
I1177
sV\u7c4d
p1813
I2524
sV\u594f
p1814
I767
sV\u5353
p1815
I412
sV\u4ed6
p1816
I103
sV\u6a59
p1817
I1737
sV\u9525
p1818
I3478
sV\u68da
p1819
I1702
sV\u8f7b
p1820
I3266
sV\u82de
p1821
I2835
sV\u8717
p1822
I2982
sV\u5fe0
p1823
I1118
sV\u5b63
p1824
I846
sV\u80fa
p1825
I2736
sV\u90af
p1826
I3366
sV\u79e4
p1827
I2428
sV\u5269
p1828
I354
sV\u6dec
p1829
I1936
sV\u8671
p1830
I2953
sV\u81f4
p1831
I2784
sV\u5ef6
p1832
I1055
sV\u9a79
p1833
I3681
sV\u5bf8
p1834
I904
sV\u78fa
p1835
I2394
sV\u547d
p1836
I538
sV\u917f
p1837
I3404
sV\u52fe
p1838
I384
sV\u9000
p1839
I3321
sV\u7483
p1840
I2182
sV\u7785
p1841
I2325
sV\u9a87
p1842
I3688
sV\u808b
p1843
I2700
sV\u5f0a
p1844
I1062
sV\u620c
p1845
I1227
sV\u70ac
p1846
I2036
sV\u8f95
p1847
I3278
sV\u4e14
p1848
I12
sV\u7599
p1849
I2224
sV\u5b9d
p1850
I870
sV\u5a1c
p1851
I814
sV\u5e9f
p1852
I1044
sV\u6020
p1853
I1136
sV\u6da9
p1854
I1919
sV\u6c28
p1855
I1799
sV\u4f2a
p1856
I136
sV\u722c
p1857
I2092
sV\u552e
p1858
I586
sV\u8f88
p1859
I3272
sV\u5830
p1860
I713
sV\u5cb3
p1861
I959
sV\u65b9
p1862
I1507
sV\u673a
p1863
I1596
sV\u8bbd
p1864
I3080
sV\u4ebf
p1865
I89
sV\u6d3e
p1866
I1884
sV\u94c3
p1867
I3447
sV\u9644
p1868
I3534
sV\u5c48
p1869
I936
sV\u60cb
p1870
I1178
sV\u63cd
p1871
I1403
sV\u6850
p1872
I1674
sV\u4e54
p1873
I48
sV\u72d7
p1874
I2125
sV\u5458
p1875
I528
sV\u575a
p1876
I674
sV\u5bdd
p1877
I898
sV\u7edf
p1878
I2600
sV\u6362
p1879
I1372
sV\u67e5
p1880
I1645
sV\u6664
p1881
I1550
sV\u8010
p1882
I2675
sV\u70eb
p1883
I2057
sV\u53ed
p1884
I474
sV\u76ef
p1885
I2297
sV\u556e
p1886
I599
sV\u5ff5
p1887
I1122
sV\u5e74
p1888
I1023
sV\u62f7
p1889
I1331
sV\u9877
p1890
I3620
sV\u6478
p1891
I1439
sV\u8bfd
p1892
I3118
sV\u4eff
p1893
I119
sV\u5080
p1894
I219
sV\u5403
p1895
I486
sV\u5382
p1896
I434
sV\u7684
p1897
I2271
sV\u5a07
p1898
I812
sV\u5986
p1899
I783
sV\u5f8a
p1900
I1099
sV\u660f
p1901
I1531
sV\u8f6c
p1902
I3261
sV\u6c13
p1903
I1791
sV\u81c2
p1904
I2777
sV\u4e94
p1905
I71
sV\u5217
p1906
I323
sV\u9519
p1907
I3473
sV\u7a9c
p1908
I2465
sV\u9e1f
p1909
I3717
sV\u60a0
p1910
I1167
sV\u63a2
p1911
I1391
sV\u86a4
p1912
I2964
sV\u8d29
p1913
I3168
sV\u7bc6
p1914
I2513
sV\u72ac
p1915
I2117
sV\u75ae
p1916
I2231
sV\u5931
p1917
I755
sV\u78b0
p1918
I2381
sV\u6237
p1919
I1241
sV\u7ec8
p1920
I2585
sV\u6539
p1921
I1469
sV\u84b8
p1922
I2911
sV\u87ba
p1923
I2994
sV\u8dbe
p1924
I3222
sV\u5141
p1925
I237
sV\u53c2
p1926
I452
sV\u96c4
p1927
I3568
sV\u59c6
p1928
I796
sV\u914d
p1929
I3388
sV\u604b
p1930
I1144
sV\u634d
p1931
I1364
sV\u62cc
p1932
I1305
sV\u864f
p1933
I2947
sV\u6bd2
p1934
I1779
sV\u4f55
p1935
I152
sV\u4ed4
p1936
I101
sV\u7978
p1937
I2409
sV\u7559
p1938
I2213
sV\u5b5d
p1939
I844
sV\u5dde
p1940
I979
sV\u60e0
p1941
I1183
sV\u8463
p1942
I2901
sV\u738b
p1943
I2152
sV\u6765
p1944
I1612
sV\u86e4
p1945
I2973
sV\u89e6
p1946
I3053
sV\u6d69
p1947
I1897
sV\u6ce8
p1948
I1863
sV\u706b
p1949
I2019
sV\u8fea
p1950
I3313
sV\u736d
p1951
I2148
sV\u72ec
p1952
I2130
sV\u95ee
p1953
I3503
sV\u9971
p1954
I3656
sV\u58f0
p1955
I736
sV\u7c73
p1956
I2525
sV\u8c34
p1957
I3144
sV\u9149
p1958
I3385
sV\u7ef4
p1959
I2611
sV\u9634
p1960
I3528
sV\u6e7f
p1961
I1966
sV\u9685
p1962
I3554
sV\u9704
p1963
I3583
sV\u5b87
p1964
I858
sV\u5806
p1965
I707
sV\u7c89
p1966
I2528
sV\u618b
p1967
I1216
sV\u828d
p1968
I2815
sV\u840e
p1969
I2891
sV\u8910
p1970
I3035
sV\u4e95
p1971
I72
sV\u6f14
p1972
I1996
sV\u5499
p1973
I549
sV\u7518
p1974
I2192
sV\u7a9d
p1975
I2466
sV\u9f9f
p1976
I3754
sV\u8237
p1977
I2803
sV\u80a1
p1978
I2708
sV\u8d28
p1979
I3167
sV\u4e2a
p1980
I24
sV\u94b3
p1981
I3440
sV\u542e
p1982
I512
sV\u78b1
p1983
I2382
sV\u7eb5
p1984
I2572
sV\u7f34
p1985
I2635
sV\u63b7
p1986
I1399
sV\u8036
p1987
I2682
sV\u8fde
p1988
I3310
sV\u7ef7
p1989
I2613
sV\u4fbf
p1990
I181
sV\u7634
p1991
I2262
sV\u70c1
p1992
I2045
sV\u8361
p1993
I2863
sV\u5242
p1994
I344
sV\u76c5
p1995
I2281
sV\u5bc7
p1996
I893
sV\u6e0d
p1997
I1945
sV\u9e4a
p1998
I3730
sV\u62cd
p1999
I1306
sV\u634c
p2000
I1363
sV\u67cf
p2001
I1636
sV\u4ed5
p2002
I102
sV\u53d7
p2003
I462
sV\u7565
p2004
I2215
sV\u90bb
p2005
I3370
sV\u5b5c
p2006
I843
sV\u7fdf
p2007
I2663
sV\u5c5e
p2008
I944
sV\u80e1
p2009
I2730
sV\u7f3a
p2010
I2637
sV\u8be7
p2011
I3105
sV\u72ed
p2012
I2131
sV\u7f69
p2013
I2644
sV\u5df3
p2014
I991
sV\u7ef5
p2015
I2612
sV\u6076
p2016
I1159
sV\u667a
p2017
I1558
sV\u6b7c
p2018
I1763
sV\u6c7e
p2019
I1825
sV\u9001
p2020
I3322
sV\u5180
p2021
I268
sV\u9605
p2022
I3517
sV\u5784
p2023
I688
sV\u9886
p2024
I3631
sV\u5c09
p2025
I913
sV\u5e8a
p2026
I1033
sV\u620d
p2027
I1228
sV\u638c
p2028
I1384
sV\u6811
p2029
I1657
sV\u5317
p2030
I391
sV\u5598
p2031
I608
sV\u5b9c
p2032
I869
sV\u5f1f
p2033
I1069
sV\u62a2
p2034
I1286
sV\u6625
p2035
I1536
sV\u82c7
p2036
I2828
sV\u6b27
p2037
I1747
sV\u68a6
p2038
I1688
sV\u8c29
p2039
I3139
sV\u6da8
p2040
I1918
sV\u6eaa
p2041
I1973
sV\u772f
p2042
I2310
sV\u94ae
p2043
I3438
sV\u9e35
p2044
I3725
sV\u8bbc
p2045
I3079
sV\u6cbe
p2046
I1849
sV\u9041
p2047
I3345
sV\u51c0
p2048
I291
sV\u5543
p2049
I590
sV\u72c2
p2050
I2121
sV\u9645
p2051
I3535
sV\u5c49
p2052
I937
sV\u8bcd
p2053
I3092
sV\u814b
p2054
I2754
sV\u5eca
p2055
I1052
sV\u624d
p2056
I1247
sV\u83cc
p2057
I2881
sV\u674f
p2058
I1604
sV\u64ce
p2059
I1459
sV\u6851
p2060
I1675
sV\u69d0
p2061
I1728
sV\u6d53
p2062
I1893
sV\u6ea2
p2063
I1972
sV\u8fd4
p2064
I3304
sV\u5357
p2065
I415
sV\u75d8
p2066
I2247
sV\u56da
p2067
I642
sV\u9cde
p2068
I3716
sV\u91d1
p2069
I3418
sV\u6563
p2070
I1484
sV\u62e2
p2071
I1318
sV\u6b67
p2072
I1759
sV\u71ac
p2073
I2085
sV\u516b
p2074
I253
sV\u4eea
p2075
I111
sV\u53ec
p2076
I473
sV\u576f
p2077
I684
sV\u54ee
p2078
I575
sV\u79f0
p2079
I2433
sV\u6377
p2080
I1377
sV\u60f6
p2081
I1194
sV\u6479
p2082
I1440
sV\u4f7f
p2083
I163
sV\u5200
p2084
I315
sV\u9102
p2085
I3383
sV\u5404
p2086
I487
sV\u9887
p2087
I3632
sV\u7b06
p2088
I2482
sV\u5e08
p2089
I1000
sV\u828b
p2090
I2814
sV\u7956
p2091
I2401
sV\u800c
p2092
I2673
sV\u8845
p2093
I2999
sV\u6912
p2094
I1711
sV\u6d95
p2095
I1909
sV\u6c14
p2096
I1792
sV\u5316
p2097
I390
sV\u5618
p2098
I623
sV\u751a
p2099
I2193
sV\u7c9f
p2100
I2533
sV\u9504
p2101
I3465
sV\u65a5
p2102
I1501
sV\u8424
p2103
I2893
sV\u68a7
p2104
I1689
sV\u4fa9
p2105
I177
sV\u52ab
p2106
I370
sV\u6d2a
p2107
I1878
sV\u54af
p2108
I552
sV\u7bb1
p2109
I2512
sV\u6e89
p2110
I1969
sV\u7eb3
p2111
I2571
sV\u8336
p2112
I2854
sV\u8638
p2113
I2945
sV\u683c
p2114
I1666
sV\u6cbf
p2115
I1850
sV\u6f3e
p2116
I2001
sV\u53c1
p2117
I451
sV\u55c5
p2118
I615
sV\u804c
p2119
I2690
sV\u674e
p2120
I1603
sV\u8bd1
p2121
I3093
sV\u4ed3
p2122
I100
sV\u5356
p2123
I414
sV\u960e
p2124
I3519
sV\u94a2
p2125
I3432
sV\u7cdf
p2126
I2547
sV\u63e1
p2127
I1408
sV\u9a91
p2128
I3692
sV\u6162
p2129
I1211
sV\u65e5
p2130
I1516
sV\u6b66
p2131
I1758
sV\u4fe9
p2132
I192
sV\u6d6a
p2133
I1898
sV\u51ed
p2134
I304
sV\u7bf1
p2135
I2519
sV\u85e9
p2136
I2942
sV\u7ef3
p2137
I2610
sV\u9972
p2138
I3657
sV\u733f
p2139
I2147
sV\u6376
p2140
I1376
sV\u87f9
p2141
I2995
sV\u69fd
p2142
I1730
sV\u7280
p2143
I2114
sV\u9505
p2144
I3466
sV\u7f09
p2145
I2622
sV\u808c
p2146
I2701
sV\u640f
p2147
I1419
sV\u9a6c
p2148
I3672
sV\u4e13
p2149
I11
sV\u9017
p2150
I3332
sV\u7396
p2151
I2153
sV\u9698
p2152
I3560
sV\u759a
p2153
I2225
sV\u989c
p2154
I3641
sV\u7f9e
p2155
I2653
sV\u6321
p2156
I1349
sV\u62a0
p2157
I1284
sV\u64a4
p2158
I1448
sV\u4ea8
p2159
I81
sV\u522b
p2160
I333
sV\u6daa
p2161
I1920
sV\u50ac
p2162
I225
sV\u542f
p2163
I513
sV\u57ae
p2164
I696
sV\u9e33
p2165
I3724
sV\u8d9f
p2166
I3218
sV\u97f5
p2167
I3616
sV\u693d
p2168
I1714
sV\u8865
p2169
I3007
sV\u8fbe
p2170
I3294
sV\u5341
p2171
I402
sV\u7545
p2172
I2209
sV\u54c4
p2173
I559
sV\u5bc6
p2174
I892
sV\u6e4d
p2175
I1961
sV\u624b
p2176
I1246
sV\u9976
p2177
I3659
sV\u80cc
p2178
I2724
sV\u7fcc
p2179
I2660
sV\u4e53
p2180
I47
sV\u89d2
p2181
I3051
sV\u9686
p2182
I3555
sV\u9b4f
p2183
I3706
sV\u9057
p2184
I3351
sV\u53d6
p2185
I461
sV\u9759
p2186
I3596
sV\u76d8
p2187
I2293
sV\u795d
p2188
I2402
sV\u9524
p2189
I3477
sV\u6361
p2190
I1371
sV\u82d4
p2191
I2832
sV\u8be6
p2192
I3104
sV\u4f69
p2193
I158
sV\u6ee8
p2194
I1989
sV\u8dea
p2195
I3230
sV\u516d
p2196
I255
sV\u70ec
p2197
I2058
sV\u77ee
p2198
I2343
sV\u5e73
p2199
I1022
sV\u65fa
p2200
I1526
sV\u7281
p2201
I2115
sV\u5300
p2202
I386
sV\u5783
p2203
I687
sV\u9002
p2204
I3323
sV\u7504
p2205
I2191
sV\u5987
p2206
I784
sV\u8d4e
p2207
I3193
sV\u5c0a
p2208
I914
sV\u608d
p2209
I1164
sV\u660e
p2210
I1530
sV\u8f93
p2211
I3277
sV\u85af
p2212
I2936
sV\u5197
p2213
I276
sV\u9699
p2214
I3561
sV\u5b9b
p2215
I868
sV\u989d
p2216
I3642
sV\u591c
p2217
I747
sV\u62a1
p2218
I1285
sV\u6320
p2219
I1348
sV\u67a3
p2220
I1629
sV\u4ea9
p2221
I82
sV\u73ab
p2222
I2156
sV\u70ad
p2223
I2037
sV\u75af
p2224
I2232
sV\u962e
p2225
I3525
sV\u73ed
p2226
I2165
sV\u8236
p2227
I2802
sV\u643a
p2228
I1428
sV\u7948
p2229
I2400
sV\u4e3e
p2230
I35
sV\u8c61
p2231
I3149
sV\u57c3
p2232
I698
sV\u9042
p2233
I3346
sV\u94c5
p2234
I3448
sV\u5544
p2235
I591
sV\u5a46
p2236
I821
sV\u5ec9
p2237
I1051
sV\u5c4a
p2238
I938
sV\u614c
p2239
I1207
sV\u65cf
p2240
I1512
sV\u864e
p2241
I2946
sV\u6cd5
p2242
I1856
sV\u8d54
p2243
I3196
sV\u5256
p2244
I351
sV\u745a
p2245
I2177
sV\u6062
p2246
I1149
sV\u91cf
p2247
I3417
sV\u6ee9
p2248
I1990
sV\u8f68
p2249
I3259
sV\u53eb
p2250
I472
sV\u6c6a
p2251
I1820
sV\u70ed
p2252
I2059
sV\u516c
p2253
I254
sV\u95ef
p2254
I3504
sV\u793c
p2255
I2397
sV\u5b70
p2256
I851
sV\u6276
p2257
I1266
sV\u66f9
p2258
I1573
sV\u8bfb
p2259
I3117
sV\u697c
p2260
I1720
sV\u4e7e
p2261
I61
sV\u5201
p2262
I316
sV\u5703
p2263
I655
sV\u7405
p2264
I2167
sV\u5584
p2265
I604
sV\u5907
p2266
I741
sV\u9a86
p2267
I3687
sV\u5f88
p2268
I1098
sV\u9996
p2269
I3670
sV\u800d
p2270
I2674
sV\u6f13
p2271
I1995
sV\u8042
p2272
I2687
sV\u9798
p2273
I3608
sV\u7b1b
p2274
I2486
sV\u901b
p2275
I3334
sV\u5e9e
p2276
I1043
sV\u63a0
p2277
I1390
sV\u80a2
p2278
I2709
sV\u8425
p2279
I2894
sV\u65a4
p2280
I1500
sV\u95f0
p2281
I3505
sV\u6e29
p2282
I1954
sV\u4fa8
p2283
I176
sV\u732b
p2284
I2143
sV\u6caa
p2285
I1840
sV\u51ac
p2286
I282
sV\u552f
p2287
I587
sV\u76ae
p2288
I2277
sV\u5a31
p2289
I819
sV\u5bb0
p2290
I880
sV\u961f
p2291
I3524
sV\u9119
p2292
I3384
sV\u683d
p2293
I1667
sV\u8d3f
p2294
I3185
sV\u5241
p2295
I343
sV\u70c2
p2296
I2046
sV\u5947
p2297
I762
sV\u7cca
p2298
I2542
sV\u604d
p2299
I1145
sV\u654f
p2300
I1476
sV\u914c
p2301
I3387
sV\u4f53
p2302
I151
sV\u68d2
p2303
I1699
sV\u6c55
p2304
I1811
sV\u85cf
p2305
I2938
sV\u9157
p2306
I3390
sV\u7b5b
p2307
I2500
sV\u785d
p2308
I2366
sV\u59dc
p2309
I803
sV\u7ede
p2310
I2599
sV\u83e0
p2311
I2884
sV\u85e4
p2312
I2941
sV\u7b50
p2313
I2495
sV\u536b
p2314
I424
sV\u6cea
p2315
I1864
sV\u706d
p2316
I2020
sV\u76ee
p2317
I2296
sV\u9a71
p2318
I3677
sV\u5df4
p2319
I992
sV\u6177
p2320
I1215
sV\u94a8
p2321
I3436
sV\u8679
p2322
I2954
sV\u6b7b
p2323
I1762
sV\u5385
p2324
I436
sV\u5e87
p2325
I1032
sV\u848b
p2326
I2907
sV\u878d
p2327
I2992
sV\u660c
p2328
I1529
sV\u86d9
p2329
I2971
sV\u5199
p2330
I277
sV\u5018
p2331
I201
sV\u5c9b
p2332
I956
sV\u5e1c
p2333
I1008
sV\u7a9f
p2334
I2467
sV\u65a1
p2335
I1499
sV\u60a3
p2336
I1168
sV\u63a5
p2337
I1393
sV\u4ea7
p2338
I80
sV\u8d26
p2339
I3165
sV\u97ad
p2340
I3610
sV\u72af
p2341
I2118
sV\u7389
p2342
I2151
sV\u78b3
p2343
I2383
sV\u73b2
p2344
I2159
sV\u5bb5
p2345
I883
sV\u906d
p2346
I3354
sV\u6536
p2347
I1468
sV\u8038
p2348
I2683
sV\u6cbb
p2349
I1846
sV\u633a
p2350
I1357
sV\u8fbd
p2351
I3293
sV\u5440
p2352
I522
sV\u70c3
p2353
I2047
sV\u7ec7
p2354
I2584
sV\u79c9
p2355
I2421
sV\u9ed8
p2356
I3743
sV\u664c
p2357
I1545
sV\u82cf
p2358
I2830
sV\u614e
p2359
I1208
sV\u6dd1
p2360
I1930
sV\u6c50
p2361
I1810
sV\u6bd5
p2362
I1781
sV\u94c6
p2363
I3449
sV\u76d7
p2364
I2292
sV\u9cb8
p2365
I3713
sV\u535a
p2366
I416
sV\u803b
p2367
I2684
sV\u7adf
p2368
I2474
sV\u795e
p2369
I2403
sV\u6d66
p2370
I1896
sV\u6868
p2371
I1680
sV\u6b6a
p2372
I1760
sV\u77ed
p2373
I2342
sV\u566c
p2374
I634
sV\u716e
p2375
I2077
sV\u5df1
p2376
I989
sV\u58f3
p2377
I737
sV\u7f72
p2378
I2647
sV\u5a74
p2379
I825
sV\u6cfb
p2380
I1868
sV\u8ffd
p2381
I3320
sV\u9014
p2382
I3331
sV\u5501
p2383
I579
sV\u5480
p2384
I539
sV\u9003
p2385
I3324
sV\u5782
p2386
I686
sV\u5305
p2387
I387
sV\u7c97
p2388
I2531
sV\u74e6
p2389
I2187
sV\u90ed
p2390
I3379
sV\u7f16
p2391
I2627
sV\u670d
p2392
I1581
sV\u868c
p2393
I2961
sV\u620f
p2394
I1230
sV\u618e
p2395
I1217
sV\u6813
p2396
I1658
sV\u7119
p2397
I2067
sV\u539a
p2398
I443
sV\u7f1d
p2399
I2630
sV\u5e9c
p2400
I1042
sV\u5a1f
p2401
I815
sV\u9ec4
p2402
I3738
sV\u8521
p2403
I2923
sV\u67a2
p2404
I1628
sV\u6325
p2405
I1352
sV\u62a4
p2406
I1287
sV\u4e27
p2407
I23
sV\u6da6
p2408
I1916
sV\u68a8
p2409
I1690
sV\u542b
p2410
I509
sV\u572d
p2411
I661
sV\u60b8
p2412
I1174
sV\u63ba
p2413
I1401
sV\u8d74
p2414
I3210
sV\u9541
p2415
I3488
sV\u54c0
p2416
I557
sV\u57c2
p2417
I697
sV\u72c4
p2418
I2122
sV\u5949
p2419
I764
sV\u6d51
p2420
I1892
sV\u86f9
p2421
I2976
sV\u6853
p2422
I1676
sV\u6fd2
p2423
I2016
sV\u70d8
p2424
I2049
sV\u5f5d
p2425
I1081
sV\u7edc
p2426
I2597
sV\u8151
p2427
I2756
sV\u9e93
p2428
I3735
sV\u526f
p2429
I356
sV\u5cf0
p2430
I968
sV\u7a46
p2431
I2449
sV\u5b75
p2432
I852
sV\u65f6
p2433
I1524
sV\u8179
p2434
I2762
sV\u80f8
p2435
I2735
sV\u6e7e
p2436
I1965
sV\u8f7d
p2437
I3267
sV\u8eab
p2438
I3252
sV\u9500
p2439
I3463
sV\u9602
p2440
I3516
sV\u5c06
p2441
I912
sV\u7889
p2442
I2372
sV\u658b
p2443
I1492
sV\u638f
p2444
I1385
sV\u600e
p2445
I1129
sV\u7099
p2446
I2035
sV\u521a
p2447
I326
sV\u62a5
p2448
I1288
sV\u6324
p2449
I1351
sV\u4fa7
p2450
I175
sV\u6c26
p2451
I1797
sV\u75ab
p2452
I2230
sV\u6a2a
p2453
I1734
sV\u73af
p2454
I2157
sV\u902e
p2455
I3340
sV\u7cb1
p2456
I2538
sV\u67b7
p2457
I1634
sV\u6f88
p2458
I2010
sV\u8138
p2459
I2750
sV\u4f3c
p2460
I143
sV\u6bbf
p2461
I1773
sV\u54c1
p2462
I558
sV\u9540
p2463
I3487
sV\u71c3
p2464
I2086
sV\u80b2
p2465
I2716
sV\u5948
p2466
I763
sV\u65cb
p2467
I1511
sV\u63cf
p2468
I1404
sV\u8d50
p2469
I3195
sV\u4e52
p2470
I46
sV\u77d7
p2471
I2335
sV\u70d9
p2472
I2050
sV\u7edd
p2473
I2598
sV\u79fb
p2474
I2435
sV\u5bdf
p2475
I900
sV\u585e
p2476
I719
sV\u81e3
p2477
I2780
sV\u793a
p2478
I2396
sV\u62e5
p2479
I1320
sV\u7267
p2480
I2108
sV\u56ed
p2481
I648
sV\u776c
p2482
I2322
sV\u53ef
p2483
I476
sV\u743c
p2484
I2176
sV\u5e72
p2485
I1021
sV\u60f9
p2486
I1195
sV\u6dfb
p2487
I1942
sV\u827a
p2488
I2811
sV\u4efd
p2489
I118
sV\u786b
p2490
I2367
sV\u5401
p2491
I485
sV\u5580
p2492
I602
sV\u7682
p2493
I2270
sV\u5384
p2494
I435
sV\u5988
p2495
I785
sV\u6c11
p2496
I1790
sV\u4e92
p2497
I70
sV\u5496
p2498
I548
sV\u5019
p2499
I202
sV\u9761
p2500
I3600
sV\u5e1d
p2501
I1009
sV\u589e
p2502
I726
sV\u9171
p2503
I3399
sV\u6ca6
p2504
I1838
sV\u69a8
p2505
I1725
sV\u752b
p2506
I2199
sV\u77ac
p2507
I2332
sV\u70ae
p2508
I2038
sV\u5c31
p2509
I924
sV\u7eb2
p2510
I2570
sV\u5bb4
p2511
I882
sV\u6d3b
p2512
I1881
sV\u4e3d
p2513
I34
sV\u6ecb
p2514
I1979
sV\u76f4
p2515
I2299
sV\u5143
p2516
I238
sV\u76c2
p2517
I2280
sV\u7bc7
p2518
I2514
sV\u634f
p2519
I1366
sV\u80ce
p2520
I2725
sV\u8fd8
p2521
I3305
sV\u6bd4
p2522
I1780
sV\u5757
p2523
I673
sV\u5b5f
p2524
I845
sV\u98de
p2525
I3648
sV\u8461
p2526
I2900
sV\u65e0
p2527
I1514
sV\u8f67
p2528
I3258
sV\u9650
p2529
I3542
sV\u6869
p2530
I1681
sV\u536f
p2531
I425
sV\u5c71
p2532
I949
sV\u8e29
p2533
I3240
sV\u5973
p2534
I775
sV\u8fa8
p2535
I3287
sV\u832b
p2536
I2851
sV\u8881
p2537
I3013
sV\u5185
p2538
I269
sV\u7f06
p2539
I2621
sV\u5b89
p2540
I860
sV\u840c
p2541
I2889
sV\u630e
p2542
I1340
sV\u8f91
p2543
I3276
sV\u6e10
p2544
I1946
sV\u8a93
p2545
I3058
sV\u6d12
p2546
I1873
sV\u952f
p2547
I3483
sV\u9716
p2548
I3588
sV\u5218
p2549
I324
sV\u711a
p2550
I2068
sV\u76db
p2551
I2294
sV\u589f
p2552
I727
sV\u7f04
p2553
I2619
sV\u6620
p2554
I1535
sV\u6ca7
p2555
I1839
sV\u4f26
p2556
I135
sV\u8ba9
p2557
I3067
sV\u892a
p2558
I3038
sV\u542c
p2559
I510
sV\u70af
p2560
I2039
sV\u732e
p2561
I2144
sV\u5ab3
p2562
I830
sV\u7834
p2563
I2358
sV\u83b9
p2564
I2877
sV\u6b3e
p2565
I1750
sV\u9640
p2566
I3533
sV\u52c3
p2567
I375
sV\u86cb
p2568
I2969
sV\u634e
p2569
I1365
sV\u8fd1
p2570
I3303
sV\u4e50
p2571
I45
sV\u6854
p2572
I1677
sV\u54d7
p2573
I567
sV\u9756
p2574
I3595
sV\u53d9
p2575
I464
sV\u515a
p2576
I248
sV\u5ddd
p2577
I978
sV\u98df
p2578
I3649
sV\u8749
p2579
I2987
sV\u9510
p2580
I3470
sV\u62e3
p2581
I1319
sV\u6562
p2582
I1483
sV\u6064
p2583
I1150
sV\u6f66
p2584
I2006
sV\u79d1
p2585
I2424
sV\u7766
p2586
I2320
sV\u95ed
p2587
I3502
sV\u70ef
p2588
I2060
sV\u5ff1
p2589
I1121
sV\u7ea7
p2590
I2564
sV\u8212
p2591
I2792
sV\u8776
p2592
I2991
sV\u4efb
p2593
I117
sV\u817a
p2594
I2763
sV\u7701
p2595
I2303
sV\u5203
p2596
I317
sV\u5582
p2597
I603
sV\u7b97
p2598
I2508
sV\u7c07
p2599
I2521
sV\u598a
p2600
I786
sV\u838e
p2601
I2872
sV\u4f11
p2602
I126
sV\u6e90
p2603
I1970
sV\u5417
p2604
I499
sV\u5319
p2605
I392
sV\u5e1b
p2606
I1007
sV\u6e2d
p2607
I1955
sV\u919b
p2608
I3410
sV\u5b9e
p2609
I871
sV\u8721
p2610
I2985
sV\u80a4
p2611
I2710
sV\u6c27
p2612
I1798
sV\u4fa6
p2613
I174
sV\u762b
p2614
I2261
sV\u752d
p2615
I2200
sV\u54ac
p2616
I551
sV\u5f31
p2617
I1075
sV\u7a33
p2618
I2444
sV\u78b4
p2619
I2384
sV\u67b6
p2620
I1633
sV\u8339
p2621
I2856
sV\u4e3b
p2622
I33
sV\u6d3d
p2623
I1883
sV\u6cbc
p2624
I1847
sV\u8bbe
p2625
I3081
sV\u7741
p2626
I2316
sV\u96c0
p2627
I3566
sV\u5243
p2628
I345
sV\u5145
p2629
I240
sV\u5fc6
p2630
I1112
sV\u7b49
p2631
I2492
sV\u664b
p2632
I1544
sV\u8272
p2633
I2809
sV\u8da3
p2634
I3219
sV\u91cc
p2635
I3414
sV\u4f51
p2636
I150
sV\u88d4
p2637
I3026
sV\u52d8
p2638
I380
sV\u7cdc
p2639
I2546
sV\u5bde
p2640
I899
sV\u6761
p2641
I1611
sV\u6263
p2642
I1255
sV\u65e2
p2643
I1515
sV\u8165
p2644
I2759
sV\u95fd
p2645
I3513
sV\u956d
p2646
I3496
sV\u94ec
p2647
I3454
sV\u706f
p2648
I2021
sV\u53ee
p2649
I475
sV\u5f71
p2650
I1090
sV\u7ef0
p2651
I2609
sV\u9a73
p2652
I3678
sV\u5df2
p2653
I990
sV\u9975
p2654
I3658
sV\u9528
p2655
I3480
sV\u6cfc
p2656
I1869
sV\u8bfe
p2657
I3119
sV\u9700
p2658
I3582
sV\u8f97
p2659
I3280
sV\u5085
p2660
I220
sV\u7c27
p2661
I2522
sV\u5e06
p2662
I999
sV\u818f
p2663
I2769
sV\u620e
p2664
I1229
sV\u4e91
p2665
I69
sV\u4f10
p2666
I125
sV\u7597
p2667
I2223
sV\u501a
p2668
I203
sV\u63a3
p2669
I1392
sV\u80a5
p2670
I2711
sV\u6124
p2671
I1203
sV\u6da7
p2672
I1917
sV\u57ab
p2673
I695
sV\u682a
p2674
I1662
sV\u552c
p2675
I585
sV\u51af
p2676
I283
sV\u522e
p2677
I334
sV\u7eb1
p2678
I2569
sV\u5bb3
p2679
I881
sV\u9676
p2680
I3552
sV\u5934
p2681
I756
sV\u62b9
p2682
I1294
sV\u8338
p2683
I2855
sV\u6cbd
p2684
I1848
sV\u6d3c
p2685
I1882
sV\u96c1
p2686
I3567
sV\u5740
p2687
I665
sV\u5144
p2688
I239
sV\u73e0
p2689
I2164
sV\u5ac9
p2690
I833
sV\u64cd
p2691
I1458
sV\u654c
p2692
I1475
sV\u624e
p2693
I1248
sV\u4ed1
p2694
I99
sV\u4f50
p2695
I149
sV\u68d5
p2696
I1700
sV\u6954
p2697
I1716
sV\u72d9
p2698
I2126
sV\u505a
p2699
I213
sV\u9f20
p2700
I3746
sV\u79df
p2701
I2427
sV\u6760
p2702
I1610
sV\u63e3
p2703
I1409
sV\u6e3a
p2704
I1959
sV\u4e66
p2705
I57
sV\u82bd
p2706
I2827
sV\u77eb
p2707
I2341
sV\u54ed
p2708
I574
sV\u51ef
p2709
I305
sV\u5f70
p2710
I1089
sV\u5974
p2711
I776
sV\u65f7
p2712
I1525
sV\u6676
p2713
I1557
sV\u82f9
p2714
I2842
sV\u6cfd
p2715
I1870
sV\u7601
p2716
I2255
sV\u78c1
p2717
I2386
sV\u7184
p2718
I2079
sV\u5d07
p2719
I970
sV\u5e86
p2720
I1031
sV\u8c41
p2721
I3146
sV\u5b88
p2722
I859
sV\u670b
p2723
I1580
sV\u988a
p2724
I3634
sV\u840d
p2725
I2890
sV\u658c
p2726
I1493
sV\u610f
p2727
I1200
sV\u4e11
p2728
I10
sV\u8f90
p2729
I3275
sV\u8815
p2730
I2996
sV\u6994
p2731
I1723
sV\u9517
p2732
I3472
sV\u7696
p2733
I2276
sV\u5219
p2734
I325
sV\u5398
p2735
I442
sV\u5f1b
p2736
I1068
sV\u5c1d
p2737
I921
sV\u591f
p2738
I748
sV\u6323
p2739
I1350
sV\u6025
p2740
I1137
sV\u8d27
p2741
I3166
sV\u4ea6
p2742
I79
sV\u8ba8
p2743
I3066
sV\u542d
p2744
I511
sV\u5835
p2745
I714
sV\u901f
p2746
I3337
sV\u8537
p2747
I2926
sV\u8239
p2748
I2804
sV\u63b8
p2749
I1400
sV\u80ba
p2750
I2717
sV\u79cb
p2751
I2422
sV\u693f
p2752
I1715
sV\u5343
p2753
I403
sV\u94c2
p2754
I3446
sV\u51c4
p2755
I292
sV\u7ec6
p2756
I2583
sV\u5a49
p2757
I822
sV\u78ca
p2758
I2388
sV\u62ce
p2759
I1307
sV\u4fd0
p2760
I186
sV\u9609
p2761
I3518
sV\u76d6
p2762
I2291
sV\u7259
p2763
I2103
sV\u53d8
p2764
I463
sV\u50da
p2765
I229
sV\u8892
p2766
I3017
sV\u795f
p2767
I2404
sV\u7ade
p2768
I2473
sV\u67e0
p2769
I1644
sV\u6363
p2770
I1373
sV\u94fa
p2771
I3461
sV\u6ee6
p2772
I1988
sV\u776b
p2773
I2321
sV\u72ee
p2774
I2132
sV\u7ff0
p2775
I2665
sV\u8377
p2776
I2869
sV\u9875
p2777
I3618
sV\u6577
p2778
I1490
sV\u6279
p2779
I1267
sV\u820d
p2780
I2791
sV\u60fa
p2781
I1196
sV\u6c7d
p2782
I1824
sV\u897f
p2783
I3041
sV\u7981
p2784
I2410
sV\u5f85
p2785
I1097
sV\u8bd7
p2786
I3095
sV\u5589
p2787
I606
sV\u5408
p2788
I488
sV\u888b
p2789
I3015
sV\u4e8f
p2790
I68
sV\u7cd9
p2791
I2545
sV\u6795
p2792
I1623
sV\u6614
p2793
I1533
sV\u7a97
p2794
I2463
sV\u5916
p2795
I745
sV\u5c18
p2796
I919
sV\u7f1a
p2797
I2629
sV\u6b22
p2798
I1745
sV\u4fa5
p2799
I173
sV\u4e24
p2800
I21
sV\u7b54
p2801
I2498
sV\u94f6
p2802
I3459
sV\u65a9
p2803
I1503
sV\u8428
p2804
I2896
sV\u672a
p2805
I1588
sV\u7bad
p2806
I2511
sV\u7eaf
p2807
I2568
sV\u54b3
p2808
I554
sV\u5634
p2809
I627
sV\u6c38
p2810
I1804
sV\u4f3a
p2811
I142
sV\u83bd
p2812
I2878
sV\u653e
p2813
I1471
sV\u79c1
p2814
I2418
sV\u7840
p2815
I2362
sV\u9cc3
p2816
I3714
sV\u9b42
p2817
I3704
sV\u5fc5
p2818
I1111
sV\u52c7
p2819
I376
sV\u5146
p2820
I241
sV\u75c9
p2821
I2242
sV\u5448
p2822
I524
sV\u68cb
p2823
I1697
sV\u574a
p2824
I667
sV\u6bcd
p2825
I1777
sV\u6d4e
p2826
I1891
sV\u6050
p2827
I1146
sV\u8352
p2828
I2860
sV\u5956
p2829
I770
sV\u6ee5
p2830
I1987
sV\u70db
p2831
I2051
sV\u7f5a
p2832
I2642
sV\u963b
p2833
I3531
sV\u76df
p2834
I2295
sV\u6ce3
p2835
I1861
sV\u6b62
p2836
I1754
sV\u62e7
p2837
I1322
sV\u8c10
p2838
I3129
sV\u65e9
p2839
I1520
sV\u58eb
p2840
I733
sV\u9893
p2841
I3637
sV\u7d6e
p2842
I2557
sV\u7070
p2843
I2022
sV\u8dcb
p2844
I3224
sV\u6df9
p2845
I1941
sV\u63fd
p2846
I1414
sV\u627c
p2847
I1268
sV\u66ff
p2848
I1576
sV\u857e
p2849
I2932
sV\u7901
p2850
I2395
sV\u966a
p2851
I3550
sV\u7f05
p2852
I2620
sV\u5e84
p2853
I1030
sV\u5207
p2854
I319
sV\u5509
p2855
I582
sV\u9488
p2856
I3421
sV\u680b
p2857
I1655
sV\u8e0f
p2858
I3237
sV\u6d8e
p2859
I1908
sV\u8111
p2860
I2744
sV\u7199
p2861
I2083
sV\u6413
p2862
I1421
sV\u6392
p2863
I1387
sV\u8715
p2864
I2981
sV\u7a17
p2865
I2441
sV\u5996
p2866
I789
sV\u7c98
p2867
I2532
sV\u8e7f
p2868
I3249
sV\u7f9a
p2869
I2652
sV\u531d
p2870
I393
sV\u761f
p2871
I2256
sV\u7c3f
p2872
I2523
sV\u8c23
p2873
I3135
sV\u8ba2
p2874
I3062
sV\u4ea4
p2875
I77
sV\u8170
p2876
I2761
sV\u9e2d
p2877
I3722
sV\u67aa
p2878
I1630
sV\u9e2f
p2879
I3723
sV\u8349
p2880
I2858
sV\u7433
p2881
I2172
sV\u7272
p2882
I2110
sV\u8d39
p2883
I3181
sV\u6cb8
p2884
I1844
sV\u603b
p2885
I1142
sV\u633d
p2886
I1358
sV\u62bc
p2887
I1295
sV\u7941
p2888
I2399
sV\u5bc2
p2889
I889
sV\u7ec4
p2890
I2581
sV\u7247
p2891
I2100
sV\u51c6
p2892
I293
sV\u54c8
p2893
I562
sV\u90a3
p2894
I3362
sV\u4e4f
p2895
I44
sV\u6151
p2896
I1209
sV\u63d2
p2897
I1406
sV\u86d4
p2898
I2970
sV\u7a57
p2899
I2450
sV\u75de
p2900
I2249
sV\u68e0
p2901
I1703
sV\u8be2
p2902
I3101
sV\u4ee4
p2903
I109
sV\u6267
p2904
I1257
sV\u61e6
p2905
I1224
sV\u586b
p2906
I720
sV\u5dee
p2907
I988
sV\u5171
p2908
I257
sV\u5473
p2909
I533
sV\u53f2
p2910
I478
sV\u56f4
p2911
I651
sV\u8155
p2912
I2758
sV\u4ffa
p2913
I197
sV\u62fc
p2914
I1332
sV\u9881
p2915
I3627
sV\u5f04
p2916
I1061
sV\u7387
p2917
I2150
sV\u9006
p2918
I3325
sV\u9489
p2919
I3422
sV\u9508
p2920
I3467
sV\u8c0e
p2921
I3128
sV\u8110
p2922
I2743
sV\u6212
p2923
I1233
sV\u8695
p2924
I2962
sV\u6714
p2925
I1582
sV\u5b97
p2926
I864
sV\u7816
p2927
I2354
sV\u519b
p2928
I278
sV\u5e1a
p2929
I1006
sV\u529d
p2930
I361
sV\u731c
p2931
I2140
sV\u90fd
p2932
I3382
sV\u541e
p2933
I502
sV\u6da3
p2934
I1914
sV\u4ea5
p2935
I78
sV\u4f24
p2936
I134
sV\u63a7
p2937
I1394
sV\u8c30
p2938
I3142
sV\u64a9
p2939
I1449
sV\u7b2c
p2940
I2489
sV\u94dc
p2941
I3450
sV\u90b1
p2942
I3367
sV\u7130
p2943
I2070
sV\u55b3
p2944
I612
sV\u6bb7
p2945
I1772
sV\u6cb9
p2946
I1845
sV\u8d38
p2947
I3180
sV\u4e3a
p2948
I32
sV\u62bd
p2949
I1296
sV\u58c1
p2950
I730
sV\u7ec5
p2951
I2582
sV\u54c9
p2952
I563
sV\u6b4c
p2953
I1753
sV\u4fcf
p2954
I185
sV\u60d1
p2955
I1179
sV\u8150
p2956
I2755
sV\u6252
p2957
I1250
sV\u6f0f
p2958
I1994
sV\u5cd9
p2959
I962
sV\u7965
p2960
I2405
sV\u51db
p2961
I299
sV\u535c
p2962
I417
sV\u57df
p2963
I702
sV\u745e
p2964
I2178
sV\u4ee5
p2965
I110
sV\u7fbd
p2966
I2657
sV\u97e6
p2967
I3611
sV\u7aed
p2968
I2478
sV\u5170
p2969
I256
sV\u5272
p2970
I357
sV\u9774
p2971
I3604
sV\u8bf7
p2972
I3114
sV\u6876
p2973
I1682
sV\u6d78
p2974
I1902
sV\u81fb
p2975
I2785
sV\u94b1
p2976
I3439
sV\u62fd
p2977
I1333
sV\u67ff
p2978
I1651
sV\u7801
p2979
I2348
sV\u9a82
p2980
I3685
sV\u5e05
p2981
I998
sV\u5f84
p2982
I1096
sV\u5409
p2983
I489
sV\u4f0f
p2984
I124
sV\u8513
p2985
I2920
sV\u6292
p2986
I1276
sV\u9896
p2987
I3638
sV\u5e9a
p2988
I1041
sV\u521d
p2989
I328
sV\u571f
p2990
I658
sV\u949e
p2991
I3428
sV\u6821
p2992
I1661
sV\u8d23
p2993
I3162
sV\u4e25
p2994
I22
sV\u6ec7
p2995
I1978
sV\u8327
p2996
I2849
sV\u60a6
p2997
I1169
sV\u592b
p2998
I752
sV\u8273
p2999
I2810
sV\u5f2f
p3000
I1074
sV\u7cae
p3001
I2537
sV\u51b0
p3002
I284
sV\u7533
p3003
I2204
sV\u52b2
p3004
I372
sV\u9635
p3005
I3529
sV\u771f
p3006
I2306
sV\u6db8
p3007
I1924
sV\u4eba
p3008
I88
sV\u79c0
p3009
I2417
sV\u5ac2
p3010
I832
sV\u5e45
p3011
I1017
sV\u5347
p3012
I404
sV\u75c8
p3013
I2241
sV\u56ca
p3014
I641
sV\u8bcc
p3015
I3091
sV\u4f4f
p3016
I148
sV\u964c
p3017
I3540
sV\u62d2
p3018
I1309
sV\u6655
p3019
I1548
sV\u67d4
p3020
I1641
sV\u5b57
p3021
I840
sV\u7eda
p3022
I2596
sV\u575f
p3023
I678
sV\u8861
p3024
I3005
sV\u8dd1
p3025
I3226
sV\u8d63
p3026
I3205
sV\u6367
p3027
I1374
sV\u60e6
p3028
I1184
sV\u6469
p3029
I1438
sV\u65e8
p3030
I1519
sV\u9a6d
p3031
I3673
sV\u51f0
p3032
I306
sV\u8eaf
p3033
I3254
sV\u9675
p3034
I3551
sV\u707f
p3035
I2028
sV\u6c79
p3036
I1823
sV\u8bd5
p3037
I3094
sV\u817b
p3038
I2764
sV\u677f
p3039
I1618
sV\u5b81
p3040
I855
sV\u7a00
p3041
I2437
sV\u5c04
p3042
I911
sV\u5306
p3043
I388
sV\u6c8f
p3044
I1831
sV\u4f0e
p3045
I123
sV\u6210
p3046
I1231
sV\u6414
p3047
I1422
sV\u7897
p3048
I2377
sV\u9f99
p3049
I3752
sV\u5e18
p3050
I1005
sV\u529b
p3051
I360
sV\u7f00
p3052
I2618
sV\u949f
p3053
I3429
sV\u971e
p3054
I3590
sV\u8ba1
p3055
I3061
sV\u835a
p3056
I2862
sV\u8c24
p3057
I3136
sV\u6628
p3058
I1538
sV\u7f2e
p3059
I2634
sV\u5230
p3060
I335
sV\u75b5
p3061
I2234
sV\u5434
p3062
I515
sV\u8fb9
p3063
I3292
sV\u4e38
p3064
I30
sV\u8d3a
p3065
I3182
sV\u9f8b
p3066
I3751
sV\u907f
p3067
I3357
sV\u7ec3
p3068
I2580
sV\u9648
p3069
I3538
sV\u554a
p3070
I593
sV\u684c
p3071
I1673
sV\u4f4e
p3072
I147
sV\u85d5
p3073
I2940
sV\u6454
p3074
I1435
sV\u7b56
p3075
I2499
sV\u5fd9
p3076
I1117
sV\u51dd
p3077
I300
sV\u505c
p3078
I214
sV\u54df
p3079
I568
sV\u575e
p3080
I677
sV\u6be1
p3081
I1786
sV\u4ee3
p3082
I108
sV\u6eba
p3083
I1976
sV\u6c64
p3084
I1819
sV\u60e7
p3085
I1185
sV\u6668
p3086
I1552
sV\u8d66
p3087
I3207
sV\u786c
p3088
I2368
sV\u7cef
p3089
I2549
sV\u7f6e
p3090
I2646
sV\u9885
p3091
I3630
sV\u8868
p3092
I3008
sV\u8ff9
p3093
I3319
sV\u94be
p3094
I3443
sV\u607c
p3095
I1160
sV\u677e
p3096
I1617
sV\u5e03
p3097
I997
sV\u5982
p3098
I781
sV\u5386
p3099
I437
sV\u7709
p3100
I2304
sV\u97ed
p3101
I3614
sV\u558a
p3102
I607
sV\u690d
p3103
I1709
sV\u6c0f
p3104
I1789
sV\u6f8e
p3105
I2011
sV\u6311
p3106
I1341
sV\u6613
p3107
I1532
sV\u82ef
p3108
I2840
sV\u9e45
p3109
I3729
sV\u521b
p3110
I327
sV\u916e
p3111
I3398
sV\u541f
p3112
I503
sV\u8fc4
p3113
I3297
sV\u6b21
p3114
I1744
sV\u6e23
p3115
I1952
sV\u6d25
p3116
I1877
sV\u6ca4
p3117
I1836
sV\u6027
p3118
I1138
sV\u85aa
p3119
I2935
sV\u5fae
p3120
I1107
sV\u9633
p3121
I3527
sV\u51b2
p3122
I285
sV\u7535
p3123
I2205
sV\u6837
p3124
I1663
sV\u8bb6
p3125
I3075
sV\u60bc
p3126
I1175
sV\u7a74
p3127
I2451
sV\u9b41
p3128
I3703
sV\u9e43
p3129
I3728
sV\u76ca
p3130
I2284
sV\u5047
p3131
I211
sV\u6f20
p3132
I1997
sV\u76c8
p3133
I2283
sV\u75ca
p3134
I2243
sV\u8fce
p3135
I3301
sV\u62d0
p3136
I1308
sV\u6653
p3137
I1547
sV\u61d2
p3138
I1223
sV\u7ed8
p3139
I2594
sV\u725b
p3140
I2104
sV\u915d
p3141
I3392
sV\u7cfb
p3142
I2550
sV\u745f
p3143
I2179
sV\u6f84
p3144
I2009
sV\u8be1
p3145
I3100
sV\u796d
p3146
I2407
sV\u58ec
p3147
I734
sV\u5c6f
p3148
I948
sV\u5371
p3149
I427
sV\u72f0
p3150
I2133
sV\u8877
p3151
I3012
sV\u8328
p3152
I2850
sV\u9177
p3153
I3402
sV\u8dfa
p3154
I3234
sV\u7a81
p3155
I2456
sV\u9501
p3156
I3464
sV\u5802
p3157
I706
sV\u9187
p3158
I3405
sV\u5206
p3159
I318
sV\u5708
p3160
I657
sV\u6b8b
p3161
I1768
sV\u540a
p3162
I490
sV\u888d
p3163
I3016
sV\u4e0e
p3164
I9
sV\u6291
p3165
I1275
sV\u6012
p3166
I1130
sV\u6495
p3167
I1446
sV\u5e99
p3168
I1040
sV\u5f18
p3169
I1067
sV\u739b
p3170
I2154
sV\u5c1a
p3171
I920
sV\u759f
p3172
I2226
sV\u6b20
p3173
I1743
sV\u4fa3
p3174
I172
sV\u8822
p3175
I2997
sV\u6ca5
p3176
I1837
sV\u8d24
p3177
I3163
sV\u6728
p3178
I1587
sV\u5bab
p3179
I879
sV\u642a
p3180
I1425
sV\u5e2e
p3181
I1013
sV\u52b1
p3182
I371
sV\u77b3
p3183
I2333
sV\u94b5
p3184
I3441
sV\u69b7
p3185
I1727
sV\u9888
p3186
I3633
sV\u4f38
p3187
I141
sV\u663e
p3188
I1542
sV\u5ac1
p3189
I831
sV\u5fc3
p3190
I1110
sV\u91c7
p3191
I3411
sV\u9075
p3192
I3356
sV\u6bcb
p3193
I1776
sV\u544a
p3194
I525
sV\u68cd
p3195
I1698
sV\u4e4e
p3196
I43
sV\u82d1
p3197
I2831
sV\u6350
p3198
I1367
sV\u67d3
p3199
I1640
sV\u6052
p3200
I1147
sV\u7ed9
p3201
I2595
sV\u53db
p3202
I465
sV\u90dd
p3203
I3375
sV\u515c
p3204
I249
sV\u9a74
p3205
I3679
sV\u6ce5
p3206
I1862
sV\u8367
p3207
I2866
sV\u6266
p3208
I1256
sV\u6768
p3209
I1613
sV\u72f1
p3210
I2134
sV\u5370
p3211
I426
sV\u77f3
p3212
I2344
sV\u7574
p3213
I2218
sV\u8363
p3214
I2864
sV\u8c7a
p3215
I3154
sV\u80fd
p3216
I2737
sV\u667e
p3217
I1559
sV\u5a01
p3218
I809
sV\u6ec1
p3219
I1977
sV\u5f03
p3220
I1060
sV\u9882
p3221
I3628
sV\u5609
p3222
I621
sV\u4e8e
p3223
I67
sV\u6211
p3224
I1232
sV\u6390
p3225
I1386
sV\u8f6f
p3226
I3263
sV\u7a96
p3227
I2462
sV\u8f9c
p3228
I3283
sV\u5f98
p3229
I1104
sV\u731b
p3230
I2139
sV\u811a
p3231
I2747
sV\u519c
p3232
I279
sV\u751f
p3233
I2195
sV\u6a21
p3234
I1733
sV\u68a2
p3235
I1687
sV\u6da4
p3236
I1915
sV\u6127
p3237
I1204
sV\u82a6
p3238
I2820
sV\u9646
p3239
I3536
sV\u7d2f
p3240
I2556
sV\u7231
p3241
I2093
sV\u73b0
p3242
I2158
sV\u50b2
p3243
I226
sV\u5435
p3244
I516
sV\u4e39
p3245
I31
sV\u803d
p3246
I2685
sV\u653f
p3247
I1472
sV\u9521
p3248
I3475
sV\u5c45
p3249
I935
sV\u94a0
p3250
I3430
sV\u7f18
p3251
I2628
sV\u8d4f
p3252
I3194
sV\u4ece
p3253
I98
sV\u6251
p3254
I1249
sV\u63d0
p3255
I1405
sV\u5957
p3256
I771
sV\u7ad6
p3257
I2471
sV\u5fd8
p3258
I1116
sV\u91dc
p3259
I3419
sV\u56de
p3260
I644
sV\u6a61
p3261
I1738
sV\u4f63
p3262
I157
sV\u6de4
p3263
I1934
sV\u6167
p3264
I1212
sV\u62e6
p3265
I1321
sV\u987a
p3266
I3622
sV\u59ec
p3267
I806
sV\u53f0
p3268
I477
sV\u9773
p3269
I3603
sV\u5475
p3270
I534
sV\u75f4
p3271
I2253
sV\u6977
p3272
I1719
sV\u8ff8
p3273
I3318
sV\u637b
p3274
I1378
sV\u81fc
p3275
I2786
sV\u66fe
p3276
I1575
sV\u5883
p3277
I721
sV\u5f02
p3278
I1059
sV\u5b85
p3279
I857
sV\u5a04
p3280
I811
sV\u7687
p3281
I2273
sV\u5506
p3282
I580
sV\u5189
p3283
I271
sV\u997f
p3284
I3662
sV\u6e56
p3285
I1962
sV\u4f8d
p3286
I167
sV\u8e0c
p3287
I3236
sV\u690e
p3288
I1710
sV\u6591
p3289
I1494
sV\u6410
p3290
I1420
sV\u8712
p3291
I2980
sV\u8214
p3292
I2793
sV\u5e97
p3293
I1039
sV\u5d16
p3294
I973
sV\u5999
p3295
I790
sV\u8d85
p3296
I3215
sV\u961c
p3297
I3523
sV\u529f
p3298
I363
sV\u6da1
p3299
I1913
sV\u8d31
p3300
I3176
sV\u8ba5
p3301
I3065
sV\u6028
p3302
I1139
sV\u632a
p3303
I1354
sV\u592e
p3304
I753
sV\u70b3
p3305
I2040
sV\u9732
p3306
I3591
sV\u6838
p3307
I1664
sV\u6b3a
p3308
I1749
sV\u663c
p3309
I1541
sV\u62bf
p3310
I1297
sV\u813e
p3311
I2751
sV\u5c40
p3312
I932
sV\u5bc5
p3313
I891
sV\u96c7
p3314
I3571
sV\u5546
p3315
I592
sV\u51c9
p3316
I294
sV\u534a
p3317
I407
sV\u4e4c
p3318
I41
sV\u975b
p3319
I3597
sV\u6254
p3320
I1252
sV\u5858
p3321
I718
sV\u90f8
p3322
I3381
sV\u9986
p3323
I3665
sV\u7f20
p3324
I2631
sV\u52df
p3325
I381
sV\u715e
p3326
I2074
sV\u6de1
p3327
I1933
sV\u6c60
p3328
I1817
sV\u8be5
p3329
I3103
sV\u6566
p3330
I1485
sV\u6068
p3331
I1151
sV\u9ad8
p3332
I3700
sV\u7aef
p3333
I2479
sV\u996e
p3334
I3653
sV\u7470
p3335
I2180
sV\u50f3
p3336
I231
sV\u9274
p3337
I3420
sV\u4ef7
p3338
I116
sV\u8d76
p3339
I3212
sV\u62ff
p3340
I1335
sV\u817e
p3341
I2765
sV\u7a84
p3342
I2458
sV\u7586
p3343
I2220
sV\u7109
p3344
I2064
sV\u5088
p3345
I221
sV\u8c0b
p3346
I3126
sV\u4f0d
p3347
I122
sV\u4e8c
p3348
I66
sV\u8511
p3349
I2919
sV\u7898
p3350
I2378
sV\u541b
p3351
I500
sV\u5b9a
p3352
I867
sV\u969c
p3353
I3562
sV\u8d21
p3354
I3160
sV\u6627
p3355
I1537
sV\u60a8
p3356
I1170
sV\u63aa
p3357
I1397
sV\u7eac
p3358
I2567
sV\u59ae
p3359
I793
sV\u5531
p3360
I588
sV\u8bba
p3361
I3078
sV\u673d
p3362
I1597
sV\u623f
p3363
I1242
sV\u61be
p3364
I1219
sV\u7ba1
p3365
I2509
sV\u8bca
p3366
I3090
sV\u9647
p3367
I3537
sV\u7a20
p3368
I2443
sV\u5149
p3369
I243
sV\u70c8
p3370
I2048
sV\u53ca
p3371
I455
sV\u4f4d
p3372
I146
sV\u96cc
p3373
I3572
sV\u6551
p3374
I1477
sV\u67d2
p3375
I1639
sV\u6355
p3376
I1368
sV\u62d4
p3377
I1311
sV\u98d8
p3378
I3647
sV\u545b
p3379
I529
sV\u91ce
p3380
I3416
sV\u575d
p3381
I676
sV\u6ee4
p3382
I1986
sV\u8d61
p3383
I3203
sV\u6863
p3384
I1678
sV\u8fe2
p3385
I3312
sV\u6b65
p3386
I1757
sV\u65e6
p3387
I1517
sV\u60e8
p3388
I1186
sV\u63ea
p3389
I1411
sV\u5f6d
p3390
I1088
sV\u9a6f
p3391
I3675
sV\u94f0
p3392
I3456
sV\u5375
p3393
I430
sV\u88f8
p3394
I3032
sV\u827e
p3395
I2812
sV\u66fc
p3396
I1574
sV\u627f
p3397
I1270
sV\u5c81
p3398
I952
sV\u5e02
p3399
I996
sV\u7406
p3400
I2168
sV\u7089
p3401
I2029
sV\u8d8b
p3402
I3217
sV\u520a
p3403
I320
sV\u6491
p3404
I1444
sV\u6295
p3405
I1278
sV\u5f97
p3406
I1103
sV\u5c16
p3407
I918
sV\u5899
p3408
I725
sV\u7a1a
p3409
I2442
sV\u971c
p3410
I3589
sV\u539f
p3411
I444
sV\u7984
p3412
I2411
sV\u6ca1
p3413
I1835
sV\u4e22
p3414
I20
sV\u80a9
p3415
I2712
sV\u622a
p3416
I1237
sV\u5ead
p3417
I1047
sV\u54b1
p3418
I553
sV\u7530
p3419
I2201
sV\u51b3
p3420
I286
sV\u5632
p3421
I626
sV\u7334
p3422
I2145
sV\u7434
p3423
I2173
sV\u79c3
p3424
I2419
sV\u5e42
p3425
I1016
sV\u9b44
p3426
I3705
sV\u5446
p3427
I523
sV\u5148
p3428
I242
sV\u6dcb
p3429
I1928
sV\u524a
p3430
I346
sV\u4ecd
p3431
I97
sV\u6bcf
p3432
I1778
sV\u84d1
p3433
I2914
sV\u6652
p3434
I1546
sV\u8354
p3435
I2861
sV\u5fd7
p3436
I1115
sV\u6e38
p3437
I1958
sV\u75db
p3438
I2248
sV\u5a5a
p3439
I823
sV\u9499
p3440
I3426
sV\u6ce1
p3441
I1859
sV\u8d60
p3442
I3202
sV\u89e3
p3443
I3052
sV\u6b64
p3444
I1756
sV\u60e9
p3445
I1187
sV\u6168
p3446
I1213
sV\u5deb
p3447
I987
sV\u7eed
p3448
I2608
sV\u5f6c
p3449
I1087
sV\u786e
p3450
I2369
sV\u94f1
p3451
I3457
sV\u9570
p3452
I3497
sV\u51f3
p3453
I307
sV\u9492
p3454
I3424
sV\u5374
p3455
I429
sV\u8ff7
p3456
I3317
sV\u88f9
p3457
I3033
sV\u8015
p3458
I2676
sV\u85fb
p3459
I2943
sV\u5c01
p3460
I910
sV\u8bc1
p3461
I3084
sV\u7e82
p3462
I2559
sV\u9707
p3463
I3584
sV\u5486
p3464
I540
sV\u9009
p3465
I3326
sV\u5188
p3466
I270
sV\u6d0b
p3467
I1872
sV\u728a
p3468
I2116
sV\u4e0d
p3469
I8
sV\u8113
p3470
I2745
sV\u826f
p3471
I2807
sV\u5f17
p3472
I1066
sV\u5a9a
p3473
I829
sV\u4ea2
p3474
I76
sV\u8ba4
p3475
I3064
sV\u61a8
p3476
I1218
sV\u7d2b
p3477
I2555
sV\u8346
p3478
I2857
sV\u5e2d
p3479
I1012
sV\u5431
p3480
I514
sV\u7235
p3481
I2094
sV\u6839
p3482
I1665
sV\u653b
p3483
I1470
sV\u80be
p3484
I2718
sV\u5c41
p3485
I933
sV\u954a
p3486
I3490
sV\u5bc4
p3487
I890
sV\u5747
p3488
I666
sV\u54c6
p3489
I560
sV\u6d4b
p3490
I1890
sV\u4e4d
p3491
I42
sV\u884c
p3492
I3000
sV\u85d0
p3493
I2939
sV\u7f57
p3494
I2641
sV\u7cd6
p3495
I2544
sV\u79d8
p3496
I2426
sV\u6c61
p3497
I1818
sV\u8c79
p3498
I3153
sV\u64e6
p3499
I1462
sV\u6069
p3500
I1152
sV\u58ee
p3501
I735
sV\u75f0
p3502
I2252
sV\u5173
p3503
I258
sV\u76f2
p3504
I2298
sV\u7275
p3505
I2111
sV\u7a7f
p3506
I2455
sV\u867d
p3507
I2955
sV\u5f81
p3508
I1095
sV\u7a83
p3509
I2457
sV\u9985
p3510
I3664
sV\u5706
p3511
I656
sV\u5389
p3512
I438
sV\u4e8b
p3513
I65
sV\u710a
p3514
I2065
sV\u6293
p3515
I1277
sV\u6512
p3516
I1464
sV\u6014
p3517
I1131
sV\u5c97
p3518
I955
sV\u6e58
p3519
I1963
sV\u5b99
p3520
I866
sV\u5a18
p3521
I813
sV\u591a
p3522
I746
sV\u559d
p3523
I610
sV\u82db
p3524
I2834
sV\u6fa1
p3525
I2013
sV\u6e20
p3526
I1950
sV\u94e3
p3527
I3453
sV\u8d22
p3528
I3161
sV\u63a9
p3529
I1396
sV\u7eab
p3530
I2566
sV\u8c06
p3531
I3123
sV\u52b3
p3532
I373
sV\u7532
p3533
I2203
sV\u51b5
p3534
I287
sV\u4f36
p3535
I140
sV\u8bb9
p3536
I3077
sV\u975e
p3537
I3598
sV\u65bd
p3538
I1508
sV\u80bf
p3539
I2719
sV\u7fc1
p3540
I2658
sV\u7be1
p3541
I2517
sV\u54c7
p3542
I561
sV\u53c9
p3543
I454
sV\u7248
p3544
I2101
sV\u4ecb
p3545
I96
sV\u7eb6
p3546
I2573
sV\u8c4c
p3547
I3148
sV\u67d1
p3548
I1638
sV\u8650
p3549
I2948
sV\u62d3
p3550
I1310
sV\u8054
p3551
I2691
sV\u7bd9
p3552
I2516
sV\u56db
p3553
I643
sV\u545c
p3554
I530
sV\u70df
p3555
I2052
sV\u535e
p3556
I418
sV\u4fe1
p3557
I191
sV\u4e60
p3558
I55
sV\u8d62
p3559
I3204
sV\u70e7
p3560
I2055
sV\u63e9
p3561
I1410
sV\u843d
p3562
I2897
sV\u97e9
p3563
I3613
sV\u9668
p3564
I3548
sV\u5a03
p3565
I810
sV\u756a
p3566
I2217
sV\u9884
p3567
I3629
sV\u5288
p3568
I359
sV\u4e0b
p3569
I7
sV\u718a
p3570
I2080
sV\u8c8c
p3571
I3156
sV\u680f
p3572
I1656
sV\u9ed1
p3573
I3741
sV\u6094
p3574
I1165
sV\u88d5
p3575
I3027
sV\u7a98
p3576
I2464
sV\u561b
p3577
I624
sV\u8f6e
p3578
I3262
sV\u501f
p3579
I204
sV\u9576
p3580
I3498
sV\u8925
p3581
I3037
sV\u8427
p3582
I2895
sV\u8270
p3583
I2808
sV\u62a8
p3584
I1289
sV\u96c6
p3585
I3570
sV\u5d2d
p3586
I975
sV\u9ca4
p3587
I3712
sV\u75b2
p3588
I2233
sV\u8c37
p3589
I3145
sV\u9530
p3590
I3484
sV\u853d
p3591
I2928
sV\u64bc
p3592
I1455
sV\u803f
p3593
I2686
sV\u5349
p3594
I406
sV\u72c8
p3595
I2123
sV\u4e4b
p3596
I40
sV\u91ca
p3597
I3413
sV\u6ccc
p3598
I1855
sV\u8dcc
p3599
I3225
sV\u6751
p3600
I1606
sV\u6253
p3601
I1251
sV\u6155
p3602
I1210
sV\u9965
p3603
I3651
sV\u5b59
p3604
I842
sV\u82a5
p3605
I2819
sV\u965b
p3606
I3544
sV\u59da
p3607
I802
sV\u74dc
p3608
I2183
sV\u9f7f
p3609
I3749
sV\u717d
p3610
I2078
sV\u6467
p3611
I1437
sV\u953b
p3612
I3486
sV\u62e8
p3613
I1323
sV\u81ea
p3614
I2781
sV\u96fe
p3615
I3581
sV\u7bee
p3616
I2518
sV\u56f0
p3617
I649
sV\u95f2
p3618
I3506
sV\u5175
p3619
I260
sV\u90f4
p3620
I3380
sV\u6b79
p3621
I1761
sV\u607f
p3622
I1161
sV\u5f00
p3623
I1058
sV\u5b83
p3624
I856
sV\u916a
p3625
I3396
sV\u5885
p3626
I722
sV\u5904
p3627
I740
sV\u5587
p3628
I605
sV\u5308
p3629
I389
sV\u4f8b
p3630
I166
sV\u900a
p3631
I3327
sV\u6691
p3632
I1562
sV\u5e16
p3633
I1004
sV\u9a97
p3634
I3693
sV\u579b
p3635
I691
sV\u781a
p3636
I2355
sV\u949d
p3637
I3427
sV\u751c
p3638
I2194
sV\u719f
p3639
I2084
sV\u4ea1
p3640
I75
sV\u4f20
p3641
I133
sV\u8ba3
p3642
I3063
sV\u6c22
p3643
I1796
sV\u65a7
p3644
I1502
sV\u6328
p3645
I1353
sV\u901d
p3646
I3335
sV\u602a
p3647
I1140
sV\u5cad
p3648
I958
sV\u76b1
p3649
I2278
sV\u5730
p3650
I662
sV\u90b5
p3651
I3368
sV\u853c
p3652
I2927
sV\u5c42
p3653
I934
sV\u78c5
p3654
I2387
sV\u5944
p3655
I761
sV\u75c7
p3656
I2240
sV\u7fe0
p3657
I2664
sV\u52c9
p3658
I377
sV\u5348
p3659
I405
sV\u8d4c
p3660
I3192
sV\u6750
p3661
I1605
sV\u9a76
p3662
I3680
sV\u60d5
p3663
I1180
sV\u8154
p3664
I2757
sV\u7ad9
p3665
I2472
sV\u5b58
p3666
I841
sV\u77db
p3667
I2336
sV\u94dd
p3668
I3451
sV\u755c
p3669
I2214
sV\u6ee1
p3670
I1985
sV\u4f60
p3671
I156
sV\u8be3
p3672
I3102
sV\u8c62
p3673
I3150
sV\u65e7
p3674
I1518
sV\u6666
p3675
I1551
sV\u62e9
p3676
I1324
sV\u5feb
p3677
I1120
sV\u806a
p3678
I2694
sV\u5ced
p3679
I967
sV\u79ef
p3680
I2432
sV\u9a6e
p3681
I3674
sV\u56f1
p3682
I650
sV\u7269
p3683
I2109
sV\u53f3
p3684
I479
sV\u9192
p3685
I3408
sV\u50f5
p3686
I232
sV\u5174
p3687
I259
sV\u6df7
p3688
I1940
sV\u627e
p3689
I1269
sV\u5e01
p3690
I995
sV\u5f80
p3691
I1094
sV\u9b03
p3692
I3701
sV\u5c82
p3693
I953
sV\u5984
p3694
I782
sV\u5507
p3695
I581
sV\u7686
p3696
I2272
sV\u708a
p3697
I2030
sV\u8c0d
p3698
I3127
sV\u6d8c
p3699
I1907
sV\u8611
p3700
I2944
sV\u6790
p3701
I1622
sV\u6492
p3702
I1445
sV\u6015
p3703
I1132
sV\u5b98
p3704
I865
sV\u541d
p3705
I501
sV\u559c
p3706
I609
sV\u529e
p3707
I362
sV\u6e21
p3708
I1951
sV\u4fa0
p3709
I171
sV\u6b23
p3710
I1746
sV\u63a8
p3711
I1395
sV\u80aa
p3712
I2713
sV\u592f
p3713
I754
sV\u5631
p3714
I625
sV\u94f2
p3715
I3458
sV\u8d37
p3716
I3179
sV\u6eb6
p3717
I1975
sV\u8bb8
p3718
I3076
sV\u643d
p3719
I1429
sV\u613f
p3720
I1205
sV\u7e41
p3721
I2558
sV\u7845
p3722
I2363
sV\u8d77
p3723
I3213
sV\u9547
p3724
I3489
sV\u76c6
p3725
I2282
sV\u53c8
p3726
I453
sV\u90ca
p3727
I3372
sV\u6dcc
p3728
I1929
sV\u8651
p3729
I2949
sV\u67d0
p3730
I1637
sV\u64d2
p3731
I1460
sV\u6055
p3732
I1148
sV\u83cf
p3733
I2882
sV\u5ed6
p3734
I1054
sV\u8d25
p3735
I3164
sV\u575b
p3736
I675
sV\u55dc
p3737
I617
sV\u79c6
p3738
I2420
sV\u72de
p3739
I2127
sV\u4e61
p3740
I56
sV\u6b63
p3741
I1755
sV\u6ce2
p3742
I1860
sV\u6865
p3743
I1679
sV\u6269
p3744
I1258
sV\u996f
p3745
I3654
sV\u5373
p3746
I428
sV\u54f2
p3747
I576
sV\u7075
p3748
I2023
sV\u6d77
p3749
I1901
sV\u4ef6
p3750
I115
sV\u8a79
p3751
I3055
sV\u8bf8
p3752
I3115
sV\u68fa
p3753
I1707
sV\u817f
p3754
I2766
sV\u62fe
p3755
I1334
s.